xcpp_test_EVK.xe: file format: xcore-xe

Loadable 1 for tile[0] (node "0", tile 0):

SYMBOL TABLE
0x00000000 l F *ABS*      0x00000000 
0x00080130 g   .cp.rodata 0x00000000 _cp
0x00080148 g   .dp.data   0x00000000 _dp
0x00080148 g   .bss       0x00000000 _fbss
0x0008015c g   .dp.bss    0x00000000 _fdp.bss
0x0008015c g   .dp.bss.large 0x00000000 _fdp.bss.large
0x10000000 g   .ExtMem.bss 0x00000000 _fextmem.bss
0x00080148 g   .ctors     0x00000000 _CTOR_LIST_
0x00080148 g   .dtors     0x00000000 _DTOR_LIST_
0x05f5e100 g   *ABS*      0x00000000 _xs1_timer_hz
0x23c34600 g   *ABS*      0x00000000 _processor_hz
0x00000006 g   *ABS*      0x00000000 _default_clkblk
0x00000000 g   *ABS*      0x00000000 _cmdline_buffer_bytes
0x00000000 g   *ABS*      0x00000000 XSCOPE_REDIRECT_IO_MODE
0x00000000 l F *ABS*      0x00000000 _goblinS.s7mjhh2
0x00080000 g   .text      0x00000000 _start
0x00080042 l   .text      0x00000000 disableLinks
0x0008005e l   .text      0x00000000 nodeIdLoop
0x00080148 l   .dp.data   0x00000000 .dp.data
0x00080148 l   .dp.data   0x00000000 xlink0RegVal
0x0008014c l   .dp.data   0x00000000 dirBits0
0x00080150 l   .dp.data   0x00000000 dirBits1
0x00080088 l   .text      0x00000000 setDimensionReg
0x000800a4 l   .text      0x00000000 sayHello0
0x00000000 l   *ABS*      0x00000000 read_sswitch_reg.nstackwords
0x00000000 l   *ABS*      0x00000000 read_switch_reg.nstackwords
0x00000000 l   *ABS*      0x00000000 return_zero.nstackwords
0x00000001 l   *ABS*      0x00000000 read_sswitch_reg.maxcores
0x00000001 l   *ABS*      0x00000000 read_switch_reg.maxcores
0x00000001 l   *ABS*      0x00000000 return_zero.maxcores
0x00000000 l   *ABS*      0x00000000 read_sswitch_reg.maxtimers
0x00000000 l   *ABS*      0x00000000 read_switch_reg.maxtimers
0x00000000 l   *ABS*      0x00000000 return_zero.maxtimers
0x00000001 l   *ABS*      0x00000000 read_sswitch_reg.maxchanends
0x00000001 l   *ABS*      0x00000000 read_switch_reg.maxchanends
0x00000000 l   *ABS*      0x00000000 return_zero.maxchanends
0x00000000 l   *ABS*      0x00000000 read_pswitch_reg.nstackwords
0x00000001 l   *ABS*      0x00000000 read_pswitch_reg.maxcores
0x00000000 l   *ABS*      0x00000000 read_pswitch_reg.maxtimers
0x00000001 l   *ABS*      0x00000000 read_pswitch_reg.maxchanends
0x000800c0 l f .text      0x0000000a write_sswitch_reg
0x00000000 l   *ABS*      0x00000000 write_sswitch_reg.nstackwords
0x00000000 l   *ABS*      0x00000000 write_switch_reg.nstackwords
0x00000001 l   *ABS*      0x00000000 write_sswitch_reg.maxcores
0x00000001 l   *ABS*      0x00000000 write_switch_reg.maxcores
0x00000000 l   *ABS*      0x00000000 write_sswitch_reg.maxtimers
0x00000000 l   *ABS*      0x00000000 write_switch_reg.maxtimers
0x00000001 l   *ABS*      0x00000000 write_sswitch_reg.maxchanends
0x00000001 l   *ABS*      0x00000000 write_switch_reg.maxchanends
0x00000000 l   *ABS*      0x00000000 write_pswitch_reg.nstackwords
0x00000001 l   *ABS*      0x00000000 write_pswitch_reg.maxcores
0x00000000 l   *ABS*      0x00000000 write_pswitch_reg.maxtimers
0x00000001 l   *ABS*      0x00000000 write_pswitch_reg.maxchanends
0x000800ca l f .text      0x0000000a write_sswitch_reg_no_ack
0x00000000 l   *ABS*      0x00000000 write_sswitch_reg_no_ack.nstackwords
0x00000001 l   *ABS*      0x00000000 write_sswitch_reg_no_ack.maxcores
0x00000000 l   *ABS*      0x00000000 write_sswitch_reg_no_ack.maxtimers
0x00000001 l   *ABS*      0x00000000 write_sswitch_reg_no_ack.maxchanends
0x00000000 l   *ABS*      0x00000000 write_pswitch_reg_no_ack.nstackwords
0x00000001 l   *ABS*      0x00000000 write_pswitch_reg_no_ack.maxcores
0x00000000 l   *ABS*      0x00000000 write_pswitch_reg_no_ack.maxtimers
0x00000001 l   *ABS*      0x00000000 write_pswitch_reg_no_ack.maxchanends
0x000800d4 l f .text      0x00000050 write_switch_reg
0x000800f4 l   .text      0x00000000 build_return_no_ack
0x000800fc l   .text      0x00000000 write_switch_reg_send
0x00080116 l   .text      0x00000000 write_switch_reg_return_0
0x0008011c l   .text      0x00000000 write_switch_reg_free_and_return_1
0x00000000 l   *ABS*      0x00000000 xs1g_drive_ports_low.nstackwords
0x00000000 l   *ABS*      0x00000000 xs1g_drive_ports_low.maxcores
0x00000000 l   *ABS*      0x00000000 xs1g_drive_ports_low.maxtimers
0x00000000 l   *ABS*      0x00000000 xs1g_drive_ports_low.maxchanends
0x00000000 l   *ABS*      0x00000000 xs1g_turn_off_ports.nstackwords
0x00000000 l   *ABS*      0x00000000 xs1g_turn_off_ports.maxcores
0x00000000 l   *ABS*      0x00000000 xs1g_turn_off_ports.maxtimers
0x00000000 l   *ABS*      0x00000000 xs1g_turn_off_ports.maxchanends
0x00080130 l   .cp.rodata 0x00000000 .cp.rodata
0x00080130 l   .cp.rodata 0x00000000 xs1g_link_ports
0x00080124  wf .text      0x00000008 _done
0x00000000 l   *ABS*      0x00000000 _DoSyscall.nstackwords
0x00000000 l   *ABS*      0x00000000 _done.nstackwords
0x00000000 l   *ABS*      0x00000000 _DoSyscall.maxchanends
0x00000000 l   *ABS*      0x00000000 _done.maxchanends
0x00000000 l   *ABS*      0x00000000 _DoSyscall.maxtimers
0x00000000 l   *ABS*      0x00000000 _done.maxtimers
0x00000000 l   *ABS*      0x00000000 _DoSyscall.maxcores
0x00000000 l   *ABS*      0x00000000 _done.maxcores
0x0008012c g f .text      0x00000004 _DoSyscall
0x00080000 l   .text      0x00000000 $s.56
0x000800c0 l   .text      0x00000000 $s.60
0x000800ca l   .text      0x00000000 $s.62
0x000800d4 l   .text      0x00000000 $s.64
0x00080124 l   .text      0x00000000 $s.68
0x0008012c l   .text      0x00000000 $s.69
0x00000000 g   *ABS*      0x00000000 __main_default_network
0x00000000 l F *ABS*      0x00000000 _sod.xcMNrzbr
0x00080154 l   .dp.data   0x00000000 .dp.data
0x00080154 g   .dp.data   0x00000000 __sodFlag
0x00080158 g   .dp.data   0x00000000 __sodEnd
0x00080148 g   .bss       0x00000000 _ebss
0x0008015c g   .dp.bss.4  0x00000000 _edp.bss
0x0008015c g   .dp.bss.large 0x00000000 _edp.bss.large
0x10000000 g   .ExtMem.bss 0x00000000 _eextmem.bss
0x00080148 g   .ctors     0x00000000 _CTOR_END_
0x00080148 g   .dtors     0x00000000 _DTOR_END_
0x00080000 g   *ABS*      0x00000000 .ram_size
0x00080000 g   *ABS*      0x00000000 .ram_base
0x00008002 g   *ABS*      0x00000000 _local_tile_id

Disassembly of section .text (size: 304)

<_start>:
             0x00080000: 00 68:       ldc (ru6)       r0, 0x0
             0x00080002: 40 68:       ldc (ru6)       r1, 0x0
             0x00080004: 80 68:       ldc (ru6)       r2, 0x0
             0x00080006: c0 68:       ldc (ru6)       r3, 0x0
             0x00080008: 00 69:       ldc (ru6)       r4, 0x0
             0x0008000a: 40 69:       ldc (ru6)       r5, 0x0
             0x0008000c: 80 69:       ldc (ru6)       r6, 0x0
             0x0008000e: c0 69:       ldc (ru6)       r7, 0x0
             0x00080010: 00 6a:       ldc (ru6)       r8, 0x0
             0x00080012: 40 6a:       ldc (ru6)       r9, 0x0
             0x00080014: 00 f0 8c d8: ldap (lu10)     r11, 0x8c <.label0>
             0x00080018: fb 37:       set (1r)        cp, r11
             0x0008001a: 00 f0 95 d8: ldap (lu10)     r11, 0x95 <.label1>
             0x0008001e: eb 37:       set (1r)        dp, r11
             0x00080020: cb 6a:       ldc (ru6)       r11, 0xb
             0x00080022: bb ff ec 17: get (l2r)       r10, ps[r11]
             0x00080026: 80 f0 c0 6a: ldc (lru6)      r11, 0x2000
             0x0008002a: be 16:       add (3r)        r11, r11, r10
             0x0008002c: fb 2f:       set (1r)        sp, r11
             0x0008002e: c2 86:       getr (rus)      r0, 0x2
             0x00080030: 00 68:       ldc (ru6)       r0, 0x0
             0x00080032: 47 68:       ldc (ru6)       r1, 0x7
             0x00080034: 80 68:       ldc (ru6)       r2, 0x0
             0x00080036: 00 f0 43 d0: bl (lu10)       0x43 <write_sswitch_reg>
             0x0008003a: 02 f0 40 69: ldc (lru6)      r5, 0x80
             0x0008003e: 02 f0 88 69: ldc (lru6)      r6, 0x88

<disableLinks>:
             0x00080042: 00 68:       ldc (ru6)       r0, 0x0
             0x00080044: d4 90:       add (2rus)      r1, r5, 0x0
             0x00080046: 80 68:       ldc (ru6)       r2, 0x0
             0x00080048: 00 f0 3a d0: bl (lu10)       0x3a <write_sswitch_reg>
             0x0008004c: 15 91:       add (2rus)      r5, r5, 0x1
             0x0008004e: 06 33:       eq (3r)         r0, r5, r6
             0x00080050: 08 7c:       bf (ru6)        r0, -0x8 <disableLinks>
             0x00080052: 00 68:       ldc (ru6)       r0, 0x0
             0x00080054: 45 68:       ldc (ru6)       r1, 0x5
             0x00080056: 00 f2 82 68: ldc (lru6)      r2, 0x8002
             0x0008005a: 00 f0 36 d0: bl (lu10)       0x36 <write_sswitch_reg_no_ack>

<nodeIdLoop>:
             0x0008005e: 00 f2 42 68: ldc (lru6)      r1, 0x8002
             0x00080062: c2 86:       getr (rus)      r0, 0x2
             0x00080064: e0 17:       freer (1r)      res[r0]
             0x00080066: 81 ac:       shr (2rus)      r0, r0, 0x10
             0x00080068: 01 30:       eq (3r)         r0, r0, r1
             0x0008006a: 07 7c:       bf (ru6)        r0, -0x7 <nodeIdLoop>
             0x0008006c: 00 f2 02 68: ldc (lru6)      r0, 0x8002
             0x00080070: 60 68:       ldc (ru6)       r1, 0x20
             0x00080072: 80 68:       ldc (ru6)       r2, 0x0
             0x00080074: 00 f0 24 d0: bl (lu10)       0x24 <write_sswitch_reg>
             0x00080078: 00 f2 02 68: ldc (lru6)      r0, 0x8002
             0x0008007c: 02 f0 40 68: ldc (lru6)      r1, 0x80
             0x00080080: 00 f0 80 58: ldw (lru6)      r2, dp[0x0]
             0x00080084: 00 f0 1c d0: bl (lu10)       0x1c <write_sswitch_reg>

<setDimensionReg>:
             0x00080088: 00 f2 02 68: ldc (lru6)      r0, 0x8002
             0x0008008c: 4c 68:       ldc (ru6)       r1, 0xc
             0x0008008e: 00 f0 81 58: ldw (lru6)      r2, dp[0x1]
             0x00080092: 00 f0 15 d0: bl (lu10)       0x15 <write_sswitch_reg>
             0x00080096: 00 f2 02 68: ldc (lru6)      r0, 0x8002
             0x0008009a: 4d 68:       ldc (ru6)       r1, 0xd
             0x0008009c: 00 f0 82 58: ldw (lru6)      r2, dp[0x2]
             0x000800a0: 00 f0 0e d0: bl (lu10)       0xe <write_sswitch_reg>

<sayHello0>:
             0x000800a4: 00 f2 02 68: ldc (lru6)      r0, 0x8002
             0x000800a8: 02 f0 40 68: ldc (lru6)      r1, 0x80
             0x000800ac: 00 f0 80 58: ldw (lru6)      r2, dp[0x0]
             0x000800b0: dd a6:       mkmsk (rus)     r3, 0x1
             0x000800b2: 58 69:       ldc (ru6)       r5, 0x18
             0x000800b4: 7d 22:       shl (3r)        r3, r3, r5
             0x000800b6: 2b 40:       or (3r)         r2, r2, r3
             0x000800b8: 00 f0 02 d0: bl (lu10)       0x2 <write_sswitch_reg>
             0x000800bc: 00 f0 32 d0: bl (lu10)       0x32 <_done>

<write_sswitch_reg>:
             0x000800c0: 0c f3 cc 68: ldc (lru6)      r3, 0xc30c
             0x000800c4: c1 6a:       ldc (ru6)       r11, 0x1
             0x000800c6: 00 f0 05 73: bu (lu6)        0x5 <write_switch_reg>

<write_sswitch_reg_no_ack>:
             0x000800ca: 0c f3 cc 68: ldc (lru6)      r3, 0xc30c
             0x000800ce: c0 6a:       ldc (ru6)       r11, 0x0
             0x000800d0: 00 f0 00 73: bu (lu6)        0x0 <write_switch_reg>

<write_switch_reg>:
             0x000800d4: 00 55:       stw (ru6)       r4, sp[0x0]
             0x000800d6: c1 ac:       shr (2rus)      r4, r0, 0x10
             0x000800d8: 1e 71:       bt (ru6)        r4, 0x1e <write_switch_reg_return_0>
             0x000800da: c5 ac:       shr (2rus)      r4, r1, 0x10
             0x000800dc: 1c 71:       bt (ru6)        r4, 0x1c <write_switch_reg_return_0>
             0x000800de: 81 a4:       shl (2rus)      r0, r0, 0x10
             0x000800e0: 03 40:       or (3r)         r0, r0, r3
             0x000800e2: 02 87:       getr (rus)      r4, 0x2
             0x000800e4: 90 17:       setd (r2r)      res[r4], r0
             0x000800e6: 03 f0 c0 68: ldc (lru6)      r3, 0xc0
             0x000800ea: 03 4f:       outct (2r)      res[r4], r3
             0x000800ec: c3 7a:       bf (ru6)        r11, 0x3 <build_return_no_ack>
             0x000800ee: 40 ad:       shr (2rus)      r0, r4, 0x8
             0x000800f0: 80 a4:       shl (2rus)      r0, r0, 0x8
             0x000800f2: 04 73:       bu (u6)         0x4 <write_switch_reg_send>

<build_return_no_ack>:
             0x000800f4: 80 ac:       shr (2rus)      r0, r0, 0x8
             0x000800f6: 3c a7:       mkmsk (rus)     r3, 0x8
             0x000800f8: 03 40:       or (3r)         r0, r0, r3
             0x000800fa: 80 a4:       shl (2rus)      r0, r0, 0x8

<write_switch_reg_send>:
             0x000800fc: b4 ac:       shr (2rus)      r3, r1, 0x8
             0x000800fe: 03 40:       or (3r)         r0, r0, r3
             0x00080100: 80 af:       out (r2r)       res[r4], r0
             0x00080102: 94 0f:       outt (r2r)      res[r4], r1
             0x00080104: 88 af:       out (r2r)       res[r4], r2
             0x00080106: 11 4f:       outct (rus)     res[r4], 0x1
             0x00080108: c9 7a:       bf (ru6)        r11, 0x9 <write_switch_reg_free_and_return_1>
             0x0008010a: 90 87:       inct (2r)       r0, res[r4]
             0x0008010c: 03 b0:       eq (2rus)       r0, r0, 0x3
             0x0008010e: 11 cf:       chkct (rus)     res[r4], 0x1
             0x00080110: e4 17:       freer (1r)      res[r4]
             0x00080112: 00 5d:       ldw (ru6)       r4, sp[0x0]
             0x00080114: c0 77:       retsp (u6)      0x0

<write_switch_reg_return_0>:
             0x00080116: 00 68:       ldc (ru6)       r0, 0x0
             0x00080118: 00 5d:       ldw (ru6)       r4, sp[0x0]
             0x0008011a: c0 77:       retsp (u6)      0x0

<write_switch_reg_free_and_return_1>:
             0x0008011c: e4 17:       freer (1r)      res[r4]
             0x0008011e: 01 68:       ldc (ru6)       r0, 0x1
             0x00080120: 00 5d:       ldw (ru6)       r4, sp[0x0]
             0x00080122: c0 77:       retsp (u6)      0x0

<_done>:
             0x00080124: 07 68:       ldc (ru6)       r0, 0x7
             0x00080126: 00 f0 01 d0: bl (lu10)       0x1 <_DoSyscall>
.label2      0x0008012a: 01 77:       bu (u6)         -0x1 <.label2>

<_DoSyscall>:
             0x0008012c: d0 a6:       mkmsk (rus)     r0, 0x20
             0x0008012e: c0 77:       retsp (u6)      0x0

Disassembly of section .cp.rodata (size: 24)

<_cp>:
<.cp.rodata>:
<xs1g_link_ports>:
.label0      0x00080130: 00 00 01 00: 
             0x00080134: 00 00 20 00: 
             0x00080138: 00 01 01 00: 
             0x0008013c: 00 04 01 00: 
             0x00080140: 00 00 10 00: 
             0x00080144: 00 05 01 00: 

Disassembly of section .dp.data (size: 20)

<_dp>:
<.dp.data>:
<xlink0RegVal>:
.label1      0x00080148: 04 20 00 80: 

<dirBits0>:
             0x0008014c: 01 11 11 11: 

<dirBits1>:
             0x00080150: 11 11 11 11: 

<.dp.data>:
<__sodFlag>:
             0x00080154: 00 00 00 00: 

<__sodEnd>:
             0x00080158: 02 01 00 80: 

Loadable 1 for tile[1] (node "0", tile 1):

SYMBOL TABLE
0x00000000 l F *ABS*      0x00000000 
0x00080040 g   .cp.rodata 0x00000000 _cp
0x00080058 g   .dp.data   0x00000000 _dp
0x00080058 g   .bss       0x00000000 _fbss
0x00080060 g   .dp.bss    0x00000000 _fdp.bss
0x00080060 g   .dp.bss.large 0x00000000 _fdp.bss.large
0x10000000 g   .ExtMem.bss 0x00000000 _fextmem.bss
0x00080058 g   .ctors     0x00000000 _CTOR_LIST_
0x00080058 g   .dtors     0x00000000 _DTOR_LIST_
0x05f5e100 g   *ABS*      0x00000000 _xs1_timer_hz
0x23c34600 g   *ABS*      0x00000000 _processor_hz
0x00000006 g   *ABS*      0x00000000 _default_clkblk
0x00000000 g   *ABS*      0x00000000 _cmdline_buffer_bytes
0x00000000 g   *ABS*      0x00000000 XSCOPE_REDIRECT_IO_MODE
0x00000000 l F *ABS*      0x00000000 _goblinS.s19Iksb
0x00080000 g   .text      0x00000000 _start
0x00000000 l   *ABS*      0x00000000 read_sswitch_reg.nstackwords
0x00000000 l   *ABS*      0x00000000 read_switch_reg.nstackwords
0x00000000 l   *ABS*      0x00000000 return_zero.nstackwords
0x00000001 l   *ABS*      0x00000000 read_sswitch_reg.maxcores
0x00000001 l   *ABS*      0x00000000 read_switch_reg.maxcores
0x00000001 l   *ABS*      0x00000000 return_zero.maxcores
0x00000000 l   *ABS*      0x00000000 read_sswitch_reg.maxtimers
0x00000000 l   *ABS*      0x00000000 read_switch_reg.maxtimers
0x00000000 l   *ABS*      0x00000000 return_zero.maxtimers
0x00000001 l   *ABS*      0x00000000 read_sswitch_reg.maxchanends
0x00000001 l   *ABS*      0x00000000 read_switch_reg.maxchanends
0x00000000 l   *ABS*      0x00000000 return_zero.maxchanends
0x00000000 l   *ABS*      0x00000000 read_pswitch_reg.nstackwords
0x00000001 l   *ABS*      0x00000000 read_pswitch_reg.maxcores
0x00000000 l   *ABS*      0x00000000 read_pswitch_reg.maxtimers
0x00000001 l   *ABS*      0x00000000 read_pswitch_reg.maxchanends
0x00000000 l   *ABS*      0x00000000 write_sswitch_reg.nstackwords
0x00000000 l   *ABS*      0x00000000 write_switch_reg.nstackwords
0x00000001 l   *ABS*      0x00000000 write_sswitch_reg.maxcores
0x00000001 l   *ABS*      0x00000000 write_switch_reg.maxcores
0x00000000 l   *ABS*      0x00000000 write_sswitch_reg.maxtimers
0x00000000 l   *ABS*      0x00000000 write_switch_reg.maxtimers
0x00000001 l   *ABS*      0x00000000 write_sswitch_reg.maxchanends
0x00000001 l   *ABS*      0x00000000 write_switch_reg.maxchanends
0x00000000 l   *ABS*      0x00000000 write_pswitch_reg.nstackwords
0x00000001 l   *ABS*      0x00000000 write_pswitch_reg.maxcores
0x00000000 l   *ABS*      0x00000000 write_pswitch_reg.maxtimers
0x00000001 l   *ABS*      0x00000000 write_pswitch_reg.maxchanends
0x00000000 l   *ABS*      0x00000000 write_sswitch_reg_no_ack.nstackwords
0x00000001 l   *ABS*      0x00000000 write_sswitch_reg_no_ack.maxcores
0x00000000 l   *ABS*      0x00000000 write_sswitch_reg_no_ack.maxtimers
0x00000001 l   *ABS*      0x00000000 write_sswitch_reg_no_ack.maxchanends
0x00000000 l   *ABS*      0x00000000 write_pswitch_reg_no_ack.nstackwords
0x00000001 l   *ABS*      0x00000000 write_pswitch_reg_no_ack.maxcores
0x00000000 l   *ABS*      0x00000000 write_pswitch_reg_no_ack.maxtimers
0x00000001 l   *ABS*      0x00000000 write_pswitch_reg_no_ack.maxchanends
0x00000000 l   *ABS*      0x00000000 xs1g_drive_ports_low.nstackwords
0x00000000 l   *ABS*      0x00000000 xs1g_drive_ports_low.maxcores
0x00000000 l   *ABS*      0x00000000 xs1g_drive_ports_low.maxtimers
0x00000000 l   *ABS*      0x00000000 xs1g_drive_ports_low.maxchanends
0x00000000 l   *ABS*      0x00000000 xs1g_turn_off_ports.nstackwords
0x00000000 l   *ABS*      0x00000000 xs1g_turn_off_ports.maxcores
0x00000000 l   *ABS*      0x00000000 xs1g_turn_off_ports.maxtimers
0x00000000 l   *ABS*      0x00000000 xs1g_turn_off_ports.maxchanends
0x00080040 l   .cp.rodata 0x00000000 .cp.rodata
0x00080040 l   .cp.rodata 0x00000000 xs1g_link_ports
0x00080034  wf .text      0x00000008 _done
0x00000000 l   *ABS*      0x00000000 _DoSyscall.nstackwords
0x00000000 l   *ABS*      0x00000000 _done.nstackwords
0x00000000 l   *ABS*      0x00000000 _DoSyscall.maxchanends
0x00000000 l   *ABS*      0x00000000 _done.maxchanends
0x00000000 l   *ABS*      0x00000000 _DoSyscall.maxtimers
0x00000000 l   *ABS*      0x00000000 _done.maxtimers
0x00000000 l   *ABS*      0x00000000 _DoSyscall.maxcores
0x00000000 l   *ABS*      0x00000000 _done.maxcores
0x0008003c g f .text      0x00000004 _DoSyscall
0x00080000 l   .text      0x00000000 $s.54
0x00080034 l   .text      0x00000000 $s.66
0x0008003c l   .text      0x00000000 $s.67
0x00000000 g   *ABS*      0x00000000 __main_default_network
0x00000000 l F *ABS*      0x00000000 _sod.xc3z8bkv
0x00080058 l   .dp.data   0x00000000 .dp.data
0x00080058 g   .dp.data   0x00000000 __sodFlag
0x0008005c g   .dp.data   0x00000000 __sodEnd
0x00080058 g   .bss       0x00000000 _ebss
0x00080060 g   .dp.bss.4  0x00000000 _edp.bss
0x00080060 g   .dp.bss.large 0x00000000 _edp.bss.large
0x10000000 g   .ExtMem.bss 0x00000000 _eextmem.bss
0x00080058 g   .ctors     0x00000000 _CTOR_END_
0x00080058 g   .dtors     0x00000000 _DTOR_END_
0x00080000 g   *ABS*      0x00000000 .ram_size
0x00080000 g   *ABS*      0x00000000 .ram_base
0x00008003 g   *ABS*      0x00000000 _local_tile_id

Disassembly of section .text (size: 64)

<_start>:
             0x00080000: 00 68:       ldc (ru6)       r0, 0x0
             0x00080002: 40 68:       ldc (ru6)       r1, 0x0
             0x00080004: 80 68:       ldc (ru6)       r2, 0x0
             0x00080006: c0 68:       ldc (ru6)       r3, 0x0
             0x00080008: 00 69:       ldc (ru6)       r4, 0x0
             0x0008000a: 40 69:       ldc (ru6)       r5, 0x0
             0x0008000c: 80 69:       ldc (ru6)       r6, 0x0
             0x0008000e: c0 69:       ldc (ru6)       r7, 0x0
             0x00080010: 00 6a:       ldc (ru6)       r8, 0x0
             0x00080012: 40 6a:       ldc (ru6)       r9, 0x0
             0x00080014: 00 f0 14 d8: ldap (lu10)     r11, 0x14 <.label0>
             0x00080018: fb 37:       set (1r)        cp, r11
             0x0008001a: 00 f0 1d d8: ldap (lu10)     r11, 0x1d <.label1>
             0x0008001e: eb 37:       set (1r)        dp, r11
             0x00080020: cb 6a:       ldc (ru6)       r11, 0xb
             0x00080022: bb ff ec 17: get (l2r)       r10, ps[r11]
             0x00080026: 80 f0 c0 6a: ldc (lru6)      r11, 0x2000
             0x0008002a: be 16:       add (3r)        r11, r11, r10
             0x0008002c: fb 2f:       set (1r)        sp, r11
             0x0008002e: c2 86:       getr (rus)      r0, 0x2
             0x00080030: 00 f0 00 d0: bl (lu10)       0x0 <_done>

<_done>:
             0x00080034: 07 68:       ldc (ru6)       r0, 0x7
             0x00080036: 00 f0 01 d0: bl (lu10)       0x1 <_DoSyscall>
.label2      0x0008003a: 01 77:       bu (u6)         -0x1 <.label2>

<_DoSyscall>:
             0x0008003c: d0 a6:       mkmsk (rus)     r0, 0x20
             0x0008003e: c0 77:       retsp (u6)      0x0

Disassembly of section .cp.rodata (size: 24)

<_cp>:
<.cp.rodata>:
<xs1g_link_ports>:
.label0      0x00080040: 00 00 01 00: 
             0x00080044: 00 00 20 00: 
             0x00080048: 00 01 01 00: 
             0x0008004c: 00 04 01 00: 
             0x00080050: 00 00 10 00: 
             0x00080054: 00 05 01 00: 

Disassembly of section .dp.data (size: 8)

<_dp>:
<.dp.data>:
<__sodFlag>:
.label1      0x00080058: 00 00 00 00: 

<__sodEnd>:
             0x0008005c: 02 01 00 80: 

Loadable 2 for tile[0] (node "0", tile 0):

SYMBOL TABLE
0x00000000 l F *ABS*      0x00000000 
0x000810c0 g   .cp.rodata 0x00000000 _cp
0x00081300 g   .dp.data   0x00000000 _dp
0x000812fc g   .bss       0x00000000 _fbss
0x00081358 g   .dp.bss    0x00000000 _fdp.bss
0x0008157c g   .dp.bss.large 0x00000000 _fdp.bss.large
0x10000000 g   .ExtMem.bss 0x00000000 _fextmem.bss
0x000812f0 g   .ctors     0x00000000 _CTOR_LIST_
0x000812fc g   .dtors     0x00000000 _DTOR_LIST_
0x05f5e100 g   *ABS*      0x00000000 _xs1_timer_hz
0x23c34600 g   *ABS*      0x00000000 _processor_hz
0x00000006 g   *ABS*      0x00000000 _default_clkblk
0x00000000 g   *ABS*      0x00000000 _cmdline_buffer_bytes
0x00000000 g   *ABS*      0x00000000 XSCOPE_REDIRECT_IO_MODE
0x00000000 l F *ABS*      0x00000000 crt1.S
0x00000000 l   *ABS*      0x00000000 _cmdline_buffer_words
0x00000000 l   *ABS*      0x00000000 _cmdline_buffer_bytes_aligned
0x00000001 l   *ABS*      0x00000000 _cmdline_buffer_stackwords
0x000ffd74 g   *ABS*      0x00000000 _eheap
0x0008157c g   *ABS*      0x00000000 _bheap
0x000000a3 l   *ABS*      0x00000000 _reserved_stackspace
0x000000a3 g   *ABS*      0x00000000 _start.nstackwords
0x00080000 g   *ABS*      0x00000000 .ram_base
0x00080000 g   *ABS*      0x00000000 .ram_size
0x0008157c g   .dp.bss.large 0x00000000 _edp.bss.large
0x00081354 l   .dp.data.extmem.setps 0x00000000 .dp.data.extmem.setps
0x00081354 g   .dp.data.extmem.setps 0x00000000 __extmem_setps_val
0x00080000 l   .crt       0x00000000 .crt
0x00000001 l   *ABS*      0x00000000 _num_global_chanends
0x00000000 l   *ABS*      0x00000000 _num_global_timers
0x00080000 g f .crt       0x0000007a _start
0x000800ae l f .crt       0x00000014 _SetupThread
0x000800cc g f .init      0x0000001a _init
0x000809ac g f .text      0x00000010 _get_cmdline
0x00080922 g f .text      0x0000008a main
0x000809bc g f .text      0x00000018 __libc_done
0x000809d4 g f .text      0x0000001c _exit_unlocked
0x00080088 l f .crt       0x00000022 _startExit
0x00000002 g   *ABS*      0x00000000 _start.maxcores
0x00000002 g   *ABS*      0x00000000 _start.maxtimers
0x00000001 g   *ABS*      0x00000000 _start.maxchanends
0x00000000 l   *ABS*      0x00000000 _SetupThread.nstackwords
0x00000032 g   *ABS*      0x00000000 _init.nstackwords
0x00000082 g   *ABS*      0x00000000 main.nstackwords
0x00000034 g   *ABS*      0x00000000 __libc_done.nstackwords
0x00000036 g   *ABS*      0x00000000 _exit_unlocked.nstackwords
0x00000000 g   *ABS*      0x00000000 _get_cmdline.nstackwords
0x00000001 l   *ABS*      0x00000000 _SetupThread.maxcores
0x00000001 g   *ABS*      0x00000000 _init.maxcores
0x00000002 g   *ABS*      0x00000000 main.maxcores
0x00000001 g   *ABS*      0x00000000 __libc_done.maxcores
0x00000001 g   *ABS*      0x00000000 _exit_unlocked.maxcores
0x00000000 g   *ABS*      0x00000000 _get_cmdline.maxcores
0x00000000 l   *ABS*      0x00000000 _SetupThread.maxtimers
0x00000000 g   *ABS*      0x00000000 _init.maxtimers
0x00000001 g   *ABS*      0x00000000 main.maxtimers
0x00000000 g   *ABS*      0x00000000 __libc_done.maxtimers
0x00000000 g   *ABS*      0x00000000 _exit_unlocked.maxtimers
0x00000000 g   *ABS*      0x00000000 _get_cmdline.maxtimers
0x00000000 l   *ABS*      0x00000000 _SetupThread.maxchanends
0x00000000 g   *ABS*      0x00000000 _init.maxchanends
0x00000000 g   *ABS*      0x00000000 main.maxchanends
0x00000000 g   *ABS*      0x00000000 __libc_done.maxchanends
0x00000000 g   *ABS*      0x00000000 _exit_unlocked.maxchanends
0x00000000 g   *ABS*      0x00000000 _get_cmdline.maxchanends
0x00080080 l f .crt       0x00000008 _TrapHandler
0x00000000 g   *ABS*      0x00000000 _DoException.nstackwords
0x00000000 l   *ABS*      0x00000000 _TrapHandler.nstackwords
0x00000000 g   *ABS*      0x00000000 _DoException.maxcores
0x00000000 l   *ABS*      0x00000000 _TrapHandler.maxcores
0x00000000 g   *ABS*      0x00000000 _DoException.maxtimers
0x00000000 l   *ABS*      0x00000000 _TrapHandler.maxtimers
0x00000000 g   *ABS*      0x00000000 _DoException.maxchanends
0x00000000 l   *ABS*      0x00000000 _TrapHandler.maxchanends
0x00000000 l   *ABS*      0x00000000 _startExit.nstackwords
0x00000001 l   *ABS*      0x00000000 _startExit.maxcores
0x00000000 l   *ABS*      0x00000000 _startExit.maxtimers
0x00000000 l   *ABS*      0x00000000 _startExit.maxchanends
0x000800aa l f .crt       0x00000004 _InitChildThread
0x00000000 l   *ABS*      0x00000000 _InitChildThread.nstackwords
0x00000001 l   *ABS*      0x00000000 _InitChildThread.maxcores
0x00000000 l   *ABS*      0x00000000 _InitChildThread.maxtimers
0x00000000 l   *ABS*      0x00000000 _InitChildThread.maxchanends
0x00080d40 g f .text      0x0000000c __alloc_libc_hwlock
0x00000000 g   *ABS*      0x00000000 __alloc_libc_hwlock.nstackwords
0x00000001 g   *ABS*      0x00000000 __alloc_libc_hwlock.maxcores
0x00000000 g   *ABS*      0x00000000 __alloc_libc_hwlock.maxtimers
0x00000000 g   *ABS*      0x00000000 __alloc_libc_hwlock.maxchanends
0x000800c2  wf .crt       0x00000002 __register_frame_info_bases
0x00000000  w  *ABS*      0x00000000 __register_frame_info_bases.nstackwords
0x00000001  w  *ABS*      0x00000000 __register_frame_info_bases.maxcores
0x00000000  w  *ABS*      0x00000000 __register_frame_info_bases.maxtimers
0x00000000  w  *ABS*      0x00000000 __register_frame_info_bases.maxchanends
0x000800cc l   .init      0x00000000 .init
0x000800e6 l   .fini      0x00000000 .fini
0x000800e6 g f .fini      0x0000002e _fini
0x00000032 g   *ABS*      0x00000000 _fini.nstackwords
0x00000001 g   *ABS*      0x00000000 _fini.maxcores
0x00000000 g   *ABS*      0x00000000 _fini.maxtimers
0x00000000 g   *ABS*      0x00000000 _fini.maxchanends
0x000811f4 l   .cp.const4 0x00000000 .cp.const4
0x000811f4 l   .cp.const4 0x00000000 initial_sp
0x000811e0 l   .cp.const4 0x00000000 initial_dp
0x000811f8 l   .cp.const4 0x00000000 dp_bss_size
0x0008157c g   .dp.bss.4  0x00000000 _edp.bss
0x000811e4 l   .cp.const4 0x00000000 dp_bss_large_start
0x000811fc l   .cp.const4 0x00000000 dp_bss_large_size
0x000811e8 l   .cp.const4 0x00000000 extmem_bss_start
0x00081200 l   .cp.const4 0x00000000 extmem_bss_size
0x10000000 g   .ExtMem.bss 0x00000000 _eextmem.bss
0x00000000 l   .trap_info_str 0x00000000 .trap_info_str
0x00000000 l   .trap_info 0x00000000 .trap_info
0x000809f0 g f .text      0x00000008 memset
0x000809f8 g f .text      0x00000012 __init_threadlocal_timer
0x000800c4 g f .crt       0x00000008 _DoException
0x00080000 l   .crt       0x00000000 $s.67
0x000800cc l   .init      0x00000000 $s.68
0x000800e6 l   .fini      0x00000000 $s.69
0x00000000 l F *ABS*      0x00000000 crtbegin.S
0x000811f0 l   .cp.const4 0x00000000 .cp.const4
0x000811f0 l   .cp.const4 0x00000000 dtor_list_ptr
0x00081204 l   .cp.const4 0x00000000 dtors_size
0x000812fc g   .dtors     0x00000000 _DTOR_END_
0x000800e8 l   .fini      0x00000000 .fini
0x000800fc l   .fini      0x00000000 do_dtors_loop
0x00080106 l   .fini      0x00000000 do_dtors_end
0x00080a0c g f .text      0x00000010 __free_threadlocal_timer
0x000800e8 l   .fini      0x00000000 $s.5
0x00000000 l F *ABS*      0x00000000 xscope_write.c
0x00000000 l   .debug_info 0x00000000 .debug_info
0x00000000 l   .debug_abbrev 0x00000000 .debug_abbrev
0x00000000 l   .debug_line 0x00000000 .debug_line
0x0000069e l   .debug_str 0x00000000 .debug_str
0x00000000 l   .debug_loc 0x00000000 .debug_loc
0x00000000 l   .debug_ranges 0x00000000 .debug_ranges
0x00080114 g f .text      0x00000068 _write
0x00000012 g   *ABS*      0x00000000 _write.nstackwords
0x00000000 g   *ABS*      0x00000000 xscope_get_io_config.nstackwords
0x00000002 g   *ABS*      0x00000000 xscope_syscall_write.nstackwords
0x0000000c g   *ABS*      0x00000000 xscope_syscall_data_write.nstackwords
0x00000001 g   *ABS*      0x00000000 _write.maxcores
0x00000001 g   *ABS*      0x00000000 xscope_get_io_config.maxcores
0x00000001 g   *ABS*      0x00000000 xscope_syscall_data_write.maxcores
0x00000001 g   *ABS*      0x00000000 xscope_syscall_write.maxcores
0x00000000 g   *ABS*      0x00000000 _write.maxtimers
0x00000000 g   *ABS*      0x00000000 xscope_get_io_config.maxtimers
0x00000000 g   *ABS*      0x00000000 xscope_syscall_data_write.maxtimers
0x00000000 g   *ABS*      0x00000000 xscope_syscall_write.maxtimers
0x00000000 g   *ABS*      0x00000000 _write.maxchanends
0x00000000 g   *ABS*      0x00000000 xscope_get_io_config.maxchanends
0x00000000 g   *ABS*      0x00000000 xscope_syscall_data_write.maxchanends
0x00000000 g   *ABS*      0x00000000 xscope_syscall_write.maxchanends
0x00080a60 g f .text      0x0000000c xscope_get_io_config
0x00080b64 g f .text      0x0000007c xscope_syscall_data_write
0x00080a6c g f .text      0x00000010 xscope_syscall_write
0x00000010 l   .trap_info 0x00000000 .trap_info
0x00080114 l   .text      0x00000000 $d.48
0x00000000 l F *ABS*      0x00000000 /Users/fabrice/github/XTC/lib_xcpp/tests/xcpp_test/src/main.xc
0x00000000 l   .netinfo   0x00000000 .netinfo
0x00000004 l   .netinfo   0x00000000 main.parinfo.debugstring0
0x0000000c l   .netinfo   0x00000000 main.parinfo.debugstring1
0x0008017c g f .text      0x00000010 __main__main_tile_0
0x00081350 g O .dp.rodata 0x00000004 tile
0x00000000 l   *ABS*      0x00000000 usage.anon.3
0x00000000 l   *ABS*      0x00000000 usage.anon.4
0x00000000 l   *ABS*      0x00000000 usage.anon.0
0x00000000 l   *ABS*      0x00000000 usage.anon.1
0x00000000 l   *ABS*      0x00000000 usage.anon.2
0x00080564 g f .text      0x00000008 tile0_task2
0x00080558 g f .text      0x0000000c tile0_task1
0x0008018c l f .text      0x0000000c __main__main_tile_0_task_tile0_task1_0
0x00080198 l f .text      0x0000000c __main__main_tile_0_task_tile0_task2_1
0x000000b2 l   .debug_info 0x00000000 .debug_info
0x00000083 l   .debug_abbrev 0x00000000 .debug_abbrev
0x0000015b l   .debug_line 0x00000000 .debug_line
0x00000668 l   .debug_str 0x00000000 .debug_str
0x000000a4 l   .debug_loc 0x00000000 .debug_loc
0x00000010 l   .debug_ranges 0x00000000 .debug_ranges
0x00000080 g   *ABS*      0x00000000 __main__main_tile_0.nstackwords
0x00000004 g   *ABS*      0x00000000 par.extra_stackwords
0x00000076 l   *ABS*      0x00000000 __main__main_tile_0_task_tile0_task1_0.nstackwords
0x00000002 l   *ABS*      0x00000000 __main__main_tile_0_task_tile0_task2_1.nstackwords
0x00000002 g   *ABS*      0x00000000 __main__main_tile_0.maxcores
0x00000001 l   *ABS*      0x00000000 __main__main_tile_0_task_tile0_task1_0.maxcores
0x00000001 l   *ABS*      0x00000000 __main__main_tile_0_task_tile0_task2_1.maxcores
0x00000001 g   *ABS*      0x00000000 __main__main_tile_0.maxtimers
0x00000000 l   *ABS*      0x00000000 __main__main_tile_0_task_tile0_task1_0.maxtimers
0x00000000 l   *ABS*      0x00000000 __main__main_tile_0_task_tile0_task2_1.maxtimers
0x00000000 g   *ABS*      0x00000000 __main__main_tile_0.maxchanends
0x00000000 l   *ABS*      0x00000000 __main__main_tile_0_task_tile0_task1_0.maxchanends
0x00000000 l   *ABS*      0x00000000 __main__main_tile_0_task_tile0_task2_1.maxchanends
0x00000074 g   *ABS*      0x00000000 tile0_task1.nstackwords
0x00000001 g   *ABS*      0x00000000 tile0_task1.maxcores
0x00000000 g   *ABS*      0x00000000 tile0_task1.maxtimers
0x00000000 g   *ABS*      0x00000000 tile0_task1.maxchanends
0x00000000 g   *ABS*      0x00000000 tile0_task2.nstackwords
0x00000001 g   *ABS*      0x00000000 tile0_task2.maxcores
0x00000000 g   *ABS*      0x00000000 tile0_task2.maxtimers
0x00000000 g   *ABS*      0x00000000 tile0_task2.maxchanends
0x0000000c g   *ABS*      0x00000000 __main__main_tile_1.nstackwords
0x00000002 l   *ABS*      0x00000000 __main__main_tile_1_task_tile1_task1_2.nstackwords
0x00000002 l   *ABS*      0x00000000 __main__main_tile_1_task_tile1_task2_3.nstackwords
0x00000002 g   *ABS*      0x00000000 __main__main_tile_1.maxcores
0x00000001 l   *ABS*      0x00000000 __main__main_tile_1_task_tile1_task1_2.maxcores
0x00000001 l   *ABS*      0x00000000 __main__main_tile_1_task_tile1_task2_3.maxcores
0x00000001 g   *ABS*      0x00000000 __main__main_tile_1.maxtimers
0x00000000 l   *ABS*      0x00000000 __main__main_tile_1_task_tile1_task1_2.maxtimers
0x00000000 l   *ABS*      0x00000000 __main__main_tile_1_task_tile1_task2_3.maxtimers
0x00000000 g   *ABS*      0x00000000 __main__main_tile_1.maxchanends
0x00000000 l   *ABS*      0x00000000 __main__main_tile_1_task_tile1_task1_2.maxchanends
0x00000000 l   *ABS*      0x00000000 __main__main_tile_1_task_tile1_task2_3.maxchanends
0x00000000 g   *ABS*      0x00000000 tile1_task1.nstackwords
0x00000001 g   *ABS*      0x00000000 tile1_task1.maxcores
0x00000000 g   *ABS*      0x00000000 tile1_task1.maxtimers
0x00000000 g   *ABS*      0x00000000 tile1_task1.maxchanends
0x00000000 g   *ABS*      0x00000000 tile1_task2.nstackwords
0x00000001 g   *ABS*      0x00000000 tile1_task2.maxcores
0x00000000 g   *ABS*      0x00000000 tile1_task2.maxtimers
0x00000000 g   *ABS*      0x00000000 tile1_task2.maxchanends
0x00081330 l   .dp.data.4 0x00000000 .dp.data.4
0x00081330 l O .dp.data.4 0x00000010 par.desc.1
0x00000000 l   .xtacalltable 0x00000000 .xtacalltable
0x00000018 l   .trap_info 0x00000000 .trap_info
0x00080c0c g f .text      0x00000000 __start_other_cores
0x0008017c l   .text      0x00000000 $s.145
0x0008018c l   .text      0x00000000 $s.146
0x00080198 l   .text      0x00000000 $s.147
0x00000000 l F *ABS*      0x00000000 sometests.cpp
0x000001ba l   .debug_info 0x00000000 .debug_info
0x000000f1 l   .debug_abbrev 0x00000000 .debug_abbrev
0x00000228 l   .debug_line 0x00000000 .debug_line
0x0000069e l   .debug_str 0x00000000 .debug_str
0x000000da l   .debug_loc 0x00000000 .debug_loc
0x00000040 l   .debug_ranges 0x00000000 .debug_ranges
0x00000020 l   .trap_info 0x00000000 .trap_info
0x00000000 l F *ABS*      0x00000000 tests.cpp
0x000801a4 l f .text      0x00000010 __dtor_PIN
0x00000000 l   *ABS*      0x00000000 __dtor_PIN.nstackwords
0x00000001 l   *ABS*      0x00000000 __dtor_PIN.maxcores
0x00000000 l   *ABS*      0x00000000 __dtor_PIN.maxtimers
0x00000000 l   *ABS*      0x00000000 __dtor_PIN.maxchanends
0x000801c8 l f .text      0x00000010 __dtor_PLEDS
0x00000000 l   *ABS*      0x00000000 __dtor_PLEDS.nstackwords
0x00000001 l   *ABS*      0x00000000 __dtor_PLEDS.maxcores
0x00000000 l   *ABS*      0x00000000 __dtor_PLEDS.maxtimers
0x00000000 l   *ABS*      0x00000000 __dtor_PLEDS.maxchanends
0x000001d9 l   .debug_info 0x00000000 .debug_info
0x00000104 l   .debug_abbrev 0x00000000 .debug_abbrev
0x00000245 l   .debug_line 0x00000000 .debug_line
0x0000069e l   .debug_str 0x00000000 .debug_str
0x000000da l   .debug_loc 0x00000000 .debug_loc
0x00000040 l   .debug_ranges 0x00000000 .debug_ranges
0x000801b4  wf .text      0x00000014 _ZN6XCPortC2EjNS_10PortMode_tEj
0x00000002  w  *ABS*      0x00000000 _ZN6XCPortC2EjNS_10PortMode_tEj.nstackwords
0x00000000  w  *ABS*      0x00000000 _ZN6XCPort7setModeENS_10PortMode_tEj.nstackwords
0x00000001  w  *ABS*      0x00000000 _ZN6XCPortC2EjNS_10PortMode_tEj.maxcores
0x00000001  w  *ABS*      0x00000000 _ZN6XCPort7setModeENS_10PortMode_tEj.maxcores
0x00000000  w  *ABS*      0x00000000 _ZN6XCPortC2EjNS_10PortMode_tEj.maxtimers
0x00000000  w  *ABS*      0x00000000 _ZN6XCPort7setModeENS_10PortMode_tEj.maxtimers
0x00000000  w  *ABS*      0x00000000 _ZN6XCPortC2EjNS_10PortMode_tEj.maxchanends
0x00000000  w  *ABS*      0x00000000 _ZN6XCPort7setModeENS_10PortMode_tEj.maxchanends
0x00081210 l   .cp.rodata.cst4 0x00000000 .cp.rodata.cst4
0x000801d8 g f .text      0x00000288 _Z8testLedsv
0x00000072 g   *ABS*      0x00000000 _Z8testLedsv.nstackwords
0x00000000 g   *ABS*      0x00000000 _ZN2XC6microsEv.nstackwords
0x00000004  w  *ABS*      0x00000000 _ZN9XCPortBit3setEj.nstackwords
0x00000000  w  *ABS*      0x00000000 _ZNK6XCPort8bitproxycvjEv.nstackwords
0x00000002  w  *ABS*      0x00000000 _ZN6XCPort8bitproxyaSEj.nstackwords
0x00000000  w  *ABS*      0x00000000 _ZNK9XCPortBit6getValEv.nstackwords
0x0000000a  w  *ABS*      0x00000000 _ZN9XCPortBitaSERKS_.nstackwords
0x00000006  w  *ABS*      0x00000000 _ZN13XCTimerMicros4waitEx.nstackwords
0x00000044 g   *ABS*      0x00000000 debug_printf.nstackwords
0x00000001 g   *ABS*      0x00000000 _Z8testLedsv.maxcores
0x00000001  w  *ABS*      0x00000000 _ZN13XCTimerMicros4waitEx.maxcores
0x00000001 g   *ABS*      0x00000000 _ZN2XC6microsEv.maxcores
0x00000001  w  *ABS*      0x00000000 _ZN6XCPort8bitproxyaSEj.maxcores
0x00000001  w  *ABS*      0x00000000 _ZN9XCPortBit3setEj.maxcores
0x00000001  w  *ABS*      0x00000000 _ZN9XCPortBitaSERKS_.maxcores
0x00000001  w  *ABS*      0x00000000 _ZNK6XCPort8bitproxycvjEv.maxcores
0x00000001  w  *ABS*      0x00000000 _ZNK9XCPortBit6getValEv.maxcores
0x00000001 g   *ABS*      0x00000000 debug_printf.maxcores
0x00000000 g   *ABS*      0x00000000 _Z8testLedsv.maxtimers
0x00000000  w  *ABS*      0x00000000 _ZN13XCTimerMicros4waitEx.maxtimers
0x00000000 g   *ABS*      0x00000000 _ZN2XC6microsEv.maxtimers
0x00000000  w  *ABS*      0x00000000 _ZN6XCPort8bitproxyaSEj.maxtimers
0x00000000  w  *ABS*      0x00000000 _ZN9XCPortBit3setEj.maxtimers
0x00000000  w  *ABS*      0x00000000 _ZN9XCPortBitaSERKS_.maxtimers
0x00000000  w  *ABS*      0x00000000 _ZNK6XCPort8bitproxycvjEv.maxtimers
0x00000000  w  *ABS*      0x00000000 _ZNK9XCPortBit6getValEv.maxtimers
0x00000000 g   *ABS*      0x00000000 debug_printf.maxtimers
0x00000000 g   *ABS*      0x00000000 _Z8testLedsv.maxchanends
0x00000000  w  *ABS*      0x00000000 _ZN13XCTimerMicros4waitEx.maxchanends
0x00000000 g   *ABS*      0x00000000 _ZN2XC6microsEv.maxchanends
0x00000000  w  *ABS*      0x00000000 _ZN6XCPort8bitproxyaSEj.maxchanends
0x00000000  w  *ABS*      0x00000000 _ZN9XCPortBit3setEj.maxchanends
0x00000000  w  *ABS*      0x00000000 _ZN9XCPortBitaSERKS_.maxchanends
0x00000000  w  *ABS*      0x00000000 _ZNK6XCPort8bitproxycvjEv.maxchanends
0x00000000  w  *ABS*      0x00000000 _ZNK9XCPortBit6getValEv.maxchanends
0x00000000 g   *ABS*      0x00000000 debug_printf.maxchanends
0x00080460  wf .text      0x0000002c _ZN6XCPort8bitproxyaSEj
0x0008048c  wf .text      0x00000024 _ZNK6XCPort8bitproxycvjEv
0x000804b0  wf .text      0x00000040 _ZN13XCTimerMicros4waitEx
0x000804f0  wf .text      0x00000018 _ZN9XCPortBit3setEv
0x00000000  w  *ABS*      0x00000000 _ZN9XCPortBit3setEv.nstackwords
0x00000001  w  *ABS*      0x00000000 _ZN9XCPortBit3setEv.maxcores
0x00000000  w  *ABS*      0x00000000 _ZN9XCPortBit3setEv.maxtimers
0x00000000  w  *ABS*      0x00000000 _ZN9XCPortBit3setEv.maxchanends
0x00080508  wf .text      0x00000018 _ZN9XCPortBit3clrEv
0x00000000  w  *ABS*      0x00000000 _ZN9XCPortBit3clrEv.nstackwords
0x00000001  w  *ABS*      0x00000000 _ZN9XCPortBit3clrEv.maxcores
0x00000000  w  *ABS*      0x00000000 _ZN9XCPortBit3clrEv.maxtimers
0x00000000  w  *ABS*      0x00000000 _ZN9XCPortBit3clrEv.maxchanends
0x00080520  wf .text      0x00000038 _ZN9XCPortBitaSERKS_
0x0008056c  wf .text      0x0000001c _ZN9XCPortBit3setEj
0x00080588  wf .text      0x00000024 _ZNK9XCPortBit6getValEv
0x000805ac  wf .text      0x0000003c _ZN6XCPort7setModeENS_10PortMode_tEj
0x000805e8 l f .text      0x0000006a _GLOBAL__sub_I_tests.cpp
0x00000010 l   *ABS*      0x00000000 _GLOBAL__sub_I_tests.cpp.nstackwords
0x0000000a g   *ABS*      0x00000000 atexit.nstackwords
0x00000001 l   *ABS*      0x00000000 _GLOBAL__sub_I_tests.cpp.maxcores
0x00000001 g   *ABS*      0x00000000 atexit.maxcores
0x00000000 l   *ABS*      0x00000000 _GLOBAL__sub_I_tests.cpp.maxtimers
0x00000000 g   *ABS*      0x00000000 atexit.maxtimers
0x00000000 l   *ABS*      0x00000000 _GLOBAL__sub_I_tests.cpp.maxchanends
0x00000000 g   *ABS*      0x00000000 atexit.maxchanends
0x00081358 l   .dp.bss    0x00000000 .dp.bss
0x00081358 g O .dp.bss    0x00000008 PIN
0x00081360 g O .dp.bss    0x00000008 PLEDS
0x00081368 g O .dp.bss    0x00000008 led0
0x00081370 g O .dp.bss    0x00000008 led1
0x00081378 g O .dp.bss    0x00000008 led2
0x00081380 g O .dp.bss    0x00000008 led3
0x00081244 l   .cp.rodata.string 0x00000000 .cp.rodata.string
0x000812f0 l   .ctors     0x00000000 .ctors
0x00000028 l   .trap_info 0x00000000 .trap_info
0x00080654 g f .text      0x000001b8 debug_printf
0x0008087c g f .text      0x00000054 _ZN2XC6microsEv
0x00080c58 g f .text      0x00000012 atexit
0x000801a4 l   .text      0x00000000 $s.2136
0x000801b4 l   .text      0x00000000 $s.2137
0x000801c8 l   .text      0x00000000 $s.2138
0x000801d8 l   .text      0x00000000 $s.2139
0x00080460 l   .text      0x00000000 $s.2140
0x0008048c l   .text      0x00000000 $s.2141
0x000804b0 l   .text      0x00000000 $s.2142
0x000804f0 l   .text      0x00000000 $s.2143
0x00080508 l   .text      0x00000000 $s.2144
0x00080520 l   .text      0x00000000 $s.2145
0x00080558 l   .text      0x00000000 $s.2146
0x00080564 l   .text      0x00000000 $s.2147
0x0008056c l   .text      0x00000000 $s.2150
0x00080588 l   .text      0x00000000 $s.2151
0x000805ac l   .text      0x00000000 $s.2152
0x000805e8 l   .text      0x00000000 $s.2153
0x00000000 l F *ABS*      0x00000000 debug_printf.c
0x000031f4 l   .debug_info 0x00000000 .debug_info
0x000003ce l   .debug_abbrev 0x00000000 .debug_abbrev
0x00000fc0 l   .debug_line 0x00000000 .debug_line
0x0000069e l   .debug_str 0x00000000 .debug_str
0x00000fb6 l   .debug_loc 0x00000000 .debug_loc
0x00000de8 l   .debug_ranges 0x00000000 .debug_ranges
0x00081210 l   .cp.rodata.cst4 0x00000000 .cp.rodata.cst4
0x00000006 l   *ABS*      0x00000000 itoa.nstackwords
0x00000000 g   *ABS*      0x00000000 strlen.nstackwords
0x00000003 g   *ABS*      0x00000000 memcpy.nstackwords
0x00000001 l   *ABS*      0x00000000 itoa.maxcores
0x00000001 g   *ABS*      0x00000000 strlen.maxcores
0x00000000 l   *ABS*      0x00000000 itoa.maxtimers
0x00000000 g   *ABS*      0x00000000 strlen.maxtimers
0x00000000 l   *ABS*      0x00000000 itoa.maxchanends
0x00000000 g   *ABS*      0x00000000 strlen.maxchanends
0x0008080c l f .text      0x00000070 itoa
0x00000000 g   *ABS*      0x00000000 memset.nstackwords
0x00081244 l   .cp.rodata.string 0x00000000 .cp.rodata.string
0x00081244 l O .cp.rodata.string 0x00000011 itoa.digits
0x00080c6c g f .text      0x00000014 strlen
0x00081344 g O .dp.data.4 0x00000004 __ctype_ptr__
0x00000030 l   .trap_info 0x00000000 .trap_info
0x00080c80 g f .text      0x00000008 memcpy
0x00080654 l   .text      0x00000000 $s.225
0x0008080c l   .text      0x00000000 $s.226
0x00000000 l F *ABS*      0x00000000 XC_I2C_master.cpp
0x00003415 l   .debug_info 0x00000000 .debug_info
0x000004f2 l   .debug_abbrev 0x00000000 .debug_abbrev
0x0000135a l   .debug_line 0x00000000 .debug_line
0x0000069e l   .debug_str 0x00000000 .debug_str
0x00001279 l   .debug_loc 0x00000000 .debug_loc
0x00000e58 l   .debug_ranges 0x00000000 .debug_ranges
0x00000038 l   .trap_info 0x00000000 .trap_info
0x00000000 l F *ABS*      0x00000000 XC_core.cpp
0x00000000 g   *ABS*      0x00000000 XC_USE_TIMER.nstackwords
0x00000001 g   *ABS*      0x00000000 XC_USE_TIMER.maxcores
0x00000001 g   *ABS*      0x00000000 XC_USE_TIMER.maxtimers
0x00000000 g   *ABS*      0x00000000 XC_USE_TIMER.maxchanends
0x0008087c l   .text      0x00000000 XC_USE_TIMER_END
0x00000000 g   *ABS*      0x00000000 XC_USE_CHANEND.nstackwords
0x00000001 g   *ABS*      0x00000000 XC_USE_CHANEND.maxcores
0x00000000 g   *ABS*      0x00000000 XC_USE_CHANEND.maxtimers
0x00000001 g   *ABS*      0x00000000 XC_USE_CHANEND.maxchanends
0x0008087c l   .text      0x00000000 XC_USE_CHANEND_END
0x000808d0 l f .text      0x00000010 __dtor_XCPortUndefined
0x00000000 l   *ABS*      0x00000000 __dtor_XCPortUndefined.nstackwords
0x00000001 l   *ABS*      0x00000000 __dtor_XCPortUndefined.maxcores
0x00000000 l   *ABS*      0x00000000 __dtor_XCPortUndefined.maxtimers
0x00000000 l   *ABS*      0x00000000 __dtor_XCPortUndefined.maxchanends
0x00003434 l   .debug_info 0x00000000 .debug_info
0x00000505 l   .debug_abbrev 0x00000000 .debug_abbrev
0x00001377 l   .debug_line 0x00000000 .debug_line
0x0000069e l   .debug_str 0x00000000 .debug_str
0x00001279 l   .debug_loc 0x00000000 .debug_loc
0x00000e58 l   .debug_ranges 0x00000000 .debug_ranges
0x00081210 l   .cp.rodata.cst4 0x00000000 .cp.rodata.cst4
0x00000000 g   *ABS*      0x00000000 _ZN2XC14setReferenceHzEj.nstackwords
0x00000001 g   *ABS*      0x00000000 _ZN2XC14setReferenceHzEj.maxcores
0x00000000 g   *ABS*      0x00000000 _ZN2XC14setReferenceHzEj.maxtimers
0x00000000 g   *ABS*      0x00000000 _ZN2XC14setReferenceHzEj.maxchanends
0x00000000 g   *ABS*      0x00000000 _ZN2XC6millisEv.nstackwords
0x00000001 g   *ABS*      0x00000000 _ZN2XC6millisEv.maxcores
0x00000000 g   *ABS*      0x00000000 _ZN2XC6millisEv.maxtimers
0x00000000 g   *ABS*      0x00000000 _ZN2XC6millisEv.maxchanends
0x00000006 g   *ABS*      0x00000000 _ZN2XC11delayMicrosEj.nstackwords
0x00000000  w  *ABS*      0x00000000 _ZN7XCTimer9waitTicksEi.nstackwords
0x00000001 g   *ABS*      0x00000000 _ZN2XC11delayMicrosEj.maxcores
0x00000001  w  *ABS*      0x00000000 _ZN7XCTimer9waitTicksEi.maxcores
0x00000001 g   *ABS*      0x00000000 _ZN2XC11delayMicrosEj.maxtimers
0x00000000  w  *ABS*      0x00000000 _ZN7XCTimer9waitTicksEi.maxtimers
0x00000000 g   *ABS*      0x00000000 _ZN2XC11delayMicrosEj.maxchanends
0x00000000  w  *ABS*      0x00000000 _ZN7XCTimer9waitTicksEi.maxchanends
0x00000006 g   *ABS*      0x00000000 _ZN2XC15delaySyncMicrosERij.nstackwords
0x00000001 g   *ABS*      0x00000000 _ZN2XC15delaySyncMicrosERij.maxcores
0x00000001 g   *ABS*      0x00000000 _ZN2XC15delaySyncMicrosERij.maxtimers
0x00000000 g   *ABS*      0x00000000 _ZN2XC15delaySyncMicrosERij.maxchanends
0x00000010 g   *ABS*      0x00000000 _ZN2XC3PLL12computeTicksEj.nstackwords
0x0000000e g   *ABS*      0x00000000 __udivdi3.nstackwords
0x00000001 g   *ABS*      0x00000000 _ZN2XC3PLL12computeTicksEj.maxcores
0x00000000 g   *ABS*      0x00000000 _ZN2XC3PLL12computeTicksEj.maxtimers
0x00000000 g   *ABS*      0x00000000 _ZN2XC3PLL12computeTicksEj.maxchanends
0x00000002 g   *ABS*      0x00000000 _ZN2XC3PLL9readValueEv.nstackwords
0x00000000 g   *ABS*      0x00000000 get_local_tile_id.nstackwords
0x00000000 g   *ABS*      0x00000000 read_sswitch_reg.nstackwords
0x00000001 g   *ABS*      0x00000000 _ZN2XC3PLL9readValueEv.maxcores
0x00000001 g   *ABS*      0x00000000 get_local_tile_id.maxcores
0x00000001 g   *ABS*      0x00000000 read_sswitch_reg.maxcores
0x00000000 g   *ABS*      0x00000000 _ZN2XC3PLL9readValueEv.maxtimers
0x00000000 g   *ABS*      0x00000000 get_local_tile_id.maxtimers
0x00000000 g   *ABS*      0x00000000 read_sswitch_reg.maxtimers
0x00000001 g   *ABS*      0x00000000 _ZN2XC3PLL9readValueEv.maxchanends
0x00000000 g   *ABS*      0x00000000 get_local_tile_id.maxchanends
0x00000001 g   *ABS*      0x00000000 read_sswitch_reg.maxchanends
0x00000012 g   *ABS*      0x00000000 _ZN2XC3PLL9readTicksEv.nstackwords
0x00000001 g   *ABS*      0x00000000 _ZN2XC3PLL9readTicksEv.maxcores
0x00000000 g   *ABS*      0x00000000 _ZN2XC3PLL9readTicksEv.maxtimers
0x00000001 g   *ABS*      0x00000000 _ZN2XC3PLL9readTicksEv.maxchanends
0x00000014 g   *ABS*      0x00000000 _ZN2XC3PLL10writeValueEj.nstackwords
0x00000000 g   *ABS*      0x00000000 write_sswitch_reg_no_ack.nstackwords
0x00000001 g   *ABS*      0x00000000 _ZN2XC3PLL10writeValueEj.maxcores
0x00000001 g   *ABS*      0x00000000 write_sswitch_reg_no_ack.maxcores
0x00000000 g   *ABS*      0x00000000 _ZN2XC3PLL10writeValueEj.maxtimers
0x00000000 g   *ABS*      0x00000000 write_sswitch_reg_no_ack.maxtimers
0x00000001 g   *ABS*      0x00000000 _ZN2XC3PLL10writeValueEj.maxchanends
0x00000001 g   *ABS*      0x00000000 write_sswitch_reg_no_ack.maxchanends
0x00000006 g   *ABS*      0x00000000 _ZN2XC3PLL9stabilizeEv.nstackwords
0x00000001 g   *ABS*      0x00000000 _ZN2XC3PLL9stabilizeEv.maxcores
0x00000001 g   *ABS*      0x00000000 _ZN2XC3PLL9stabilizeEv.maxtimers
0x00000000 g   *ABS*      0x00000000 _ZN2XC3PLL9stabilizeEv.maxchanends
0x00000016 g   *ABS*      0x00000000 _ZN2XC3PLL5resetEv.nstackwords
0x00000001 g   *ABS*      0x00000000 _ZN2XC3PLL5resetEv.maxcores
0x00000000 g   *ABS*      0x00000000 _ZN2XC3PLL5resetEv.maxtimers
0x00000001 g   *ABS*      0x00000000 _ZN2XC3PLL5resetEv.maxchanends
0x00000006 g   *ABS*      0x00000000 XCwaitTimeAfter.nstackwords
0x00000001 g   *ABS*      0x00000000 XCwaitTimeAfter.maxcores
0x00000001 g   *ABS*      0x00000000 XCwaitTimeAfter.maxtimers
0x00000000 g   *ABS*      0x00000000 XCwaitTimeAfter.maxchanends
0x00000006 g   *ABS*      0x00000000 XCdelayTicks.nstackwords
0x00000001 g   *ABS*      0x00000000 XCdelayTicks.maxcores
0x00000001 g   *ABS*      0x00000000 XCdelayTicks.maxtimers
0x00000000 g   *ABS*      0x00000000 XCdelayTicks.maxchanends
0x00000006 g   *ABS*      0x00000000 XCdelaySyncTicks.nstackwords
0x00000001 g   *ABS*      0x00000000 XCdelaySyncTicks.maxcores
0x00000001 g   *ABS*      0x00000000 XCdelaySyncTicks.maxtimers
0x00000000 g   *ABS*      0x00000000 XCdelaySyncTicks.maxchanends
0x00000000 g   *ABS*      0x00000000 XCgetTime64.nstackwords
0x00000001 g   *ABS*      0x00000000 XCgetTime64.maxcores
0x00000000 g   *ABS*      0x00000000 XCgetTime64.maxtimers
0x00000000 g   *ABS*      0x00000000 XCgetTime64.maxchanends
0x00000002 g   *ABS*      0x00000000 XCmicros.nstackwords
0x00000001 g   *ABS*      0x00000000 XCmicros.maxcores
0x00000000 g   *ABS*      0x00000000 XCmicros.maxtimers
0x00000000 g   *ABS*      0x00000000 XCmicros.maxchanends
0x00000002 g   *ABS*      0x00000000 XCmillis.nstackwords
0x00000001 g   *ABS*      0x00000000 XCmillis.maxcores
0x00000000 g   *ABS*      0x00000000 XCmillis.maxtimers
0x00000000 g   *ABS*      0x00000000 XCmillis.maxchanends
0x00000008 g   *ABS*      0x00000000 XCdelayMicros.nstackwords
0x00000001 g   *ABS*      0x00000000 XCdelayMicros.maxcores
0x00000001 g   *ABS*      0x00000000 XCdelayMicros.maxtimers
0x00000000 g   *ABS*      0x00000000 XCdelayMicros.maxchanends
0x00000008 g   *ABS*      0x00000000 XCdelaySyncMicros.nstackwords
0x00000001 g   *ABS*      0x00000000 XCdelaySyncMicros.maxcores
0x00000001 g   *ABS*      0x00000000 XCdelaySyncMicros.maxtimers
0x00000000 g   *ABS*      0x00000000 XCdelaySyncMicros.maxchanends
0x00000002 g   *ABS*      0x00000000 XCsetReferenceHz.nstackwords
0x00000001 g   *ABS*      0x00000000 XCsetReferenceHz.maxcores
0x00000000 g   *ABS*      0x00000000 XCsetReferenceHz.maxtimers
0x00000000 g   *ABS*      0x00000000 XCsetReferenceHz.maxchanends
0x00000000 g   *ABS*      0x00000000 XCgetReferenceHz.nstackwords
0x00000001 g   *ABS*      0x00000000 XCgetReferenceHz.maxcores
0x00000000 g   *ABS*      0x00000000 XCgetReferenceHz.maxtimers
0x00000000 g   *ABS*      0x00000000 XCgetReferenceHz.maxchanends
0x00000016 g   *ABS*      0x00000000 XCPLLwriteValue.nstackwords
0x00000001 g   *ABS*      0x00000000 XCPLLwriteValue.maxcores
0x00000000 g   *ABS*      0x00000000 XCPLLwriteValue.maxtimers
0x00000001 g   *ABS*      0x00000000 XCPLLwriteValue.maxchanends
0x00000004 g   *ABS*      0x00000000 XCPLLreadValue.nstackwords
0x00000001 g   *ABS*      0x00000000 XCPLLreadValue.maxcores
0x00000000 g   *ABS*      0x00000000 XCPLLreadValue.maxtimers
0x00000001 g   *ABS*      0x00000000 XCPLLreadValue.maxchanends
0x00000014 g   *ABS*      0x00000000 XCPLLreadTicks.nstackwords
0x00000001 g   *ABS*      0x00000000 XCPLLreadTicks.maxcores
0x00000000 g   *ABS*      0x00000000 XCPLLreadTicks.maxtimers
0x00000001 g   *ABS*      0x00000000 XCPLLreadTicks.maxchanends
0x00000008 g   *ABS*      0x00000000 XCPLLstabilize.nstackwords
0x00000001 g   *ABS*      0x00000000 XCPLLstabilize.maxcores
0x00000001 g   *ABS*      0x00000000 XCPLLstabilize.maxtimers
0x00000000 g   *ABS*      0x00000000 XCPLLstabilize.maxchanends
0x00000016 g   *ABS*      0x00000000 XCPLLreset.nstackwords
0x00000001 g   *ABS*      0x00000000 XCPLLreset.maxcores
0x00000000 g   *ABS*      0x00000000 XCPLLreset.maxtimers
0x00000001 g   *ABS*      0x00000000 XCPLLreset.maxchanends
0x00000000  w  *ABS*      0x00000000 XCyield.nstackwords
0x00000001  w  *ABS*      0x00000000 XCyield.maxcores
0x00000000  w  *ABS*      0x00000000 XCyield.maxtimers
0x00000000  w  *ABS*      0x00000000 XCyield.maxchanends
0x000808e0 l f .text      0x00000042 _GLOBAL__sub_I_XC_core.cpp
0x0000000e l   *ABS*      0x00000000 _GLOBAL__sub_I_XC_core.cpp.nstackwords
0x00000001 l   *ABS*      0x00000000 _GLOBAL__sub_I_XC_core.cpp.maxcores
0x00000000 l   *ABS*      0x00000000 _GLOBAL__sub_I_XC_core.cpp.maxtimers
0x00000000 l   *ABS*      0x00000000 _GLOBAL__sub_I_XC_core.cpp.maxchanends
0x00081340 l   .dp.data.4 0x00000000 .dp.data.4
0x00081340 g O .dp.data.4 0x00000004 _ZN2XC13micros_factorE
0x000813b4 l   .dp.bss.4  0x00000000 .dp.bss.4
0x000813b4 g O .dp.bss.4  0x00000004 _ZN2XC13getTime64LockE
0x00081388 l   .dp.bss    0x00000000 .dp.bss
0x00081388 g O .dp.bss    0x00000008 _ZN2XC14getTime64TicksE
0x00081390 g O .dp.bss    0x00000008 XCPortUndefined
0x00081398 g O .dp.bss    0x00000008 XCPortBitUndefined
0x000813b8 g O .dp.bss.4  0x00000004 XCChanendUndefined
0x000813a0 g O .dp.bss    0x00000014 XCChanendPortUndefined
0x000812f4 l   .ctors     0x00000000 .ctors
0x00080cec g   .text      0x0000000a get_local_tile_id
0x00000040 l   .trap_info 0x00000000 .trap_info
0x00081300 g O .dp.data   0x00000020 __timers
0x0008087c l   .text      0x00000000 $s.2368
0x000808d0 l   .text      0x00000000 $s.2378
0x000808e0 l   .text      0x00000000 $s.2396
0x00000000 l F *ABS*      0x00000000 /Users/fabrice/github/XTC/lib_xcpp/tests/xcpp_test/src/main.xc
0x00000048 l   .trap_info 0x00000000 .trap_info
0x00000000 l F *ABS*      0x00000000 _startup.sKXbkoL
0x0008120c l   .cp.const4 0x00000000 .cp.const4
0x000810c0 l   .cp.rodata 0x00000000 .cp.rodata
0x000810c0 l   .cp.rodata 0x00000000 tiles_to_wake
0x000810c4 l   .cp.rodata 0x00000000 chanends_to_setup
0x00080be0 g f .text      0x0000002c delay_ticks
0x00000000 g   *ABS*      0x00000000 delay_ticks.nstackwords
0x00000001 g   *ABS*      0x00000000 delay_ticks.maxcores
0x00000000 g   *ABS*      0x00000000 delay_ticks.maxtimers
0x00000000 g   *ABS*      0x00000000 delay_ticks.maxchanends
0x00081300 l   .dp.data   0x00000000 .dp.data
0x00080922 l   .text      0x00000000 $s.11
0x00000000 l F *ABS*      0x00000000 get_cmdline.S
0x00000001 l   *ABS*      0x00000000 _get_cmdline.locnochandec
0x00000000 g   *ABS*      0x00000000 _DoSyscall.nstackwords
0x00000000 g   *ABS*      0x00000000 _DoSyscall.maxchanends
0x00000000 g   *ABS*      0x00000000 _DoSyscall.maxtimers
0x00000000 g   *ABS*      0x00000000 _DoSyscall.maxcores
0x00080cf8 g f .text      0x00000008 _DoSyscall
0x000809ac l   .text      0x00000000 $s.4
0x00000000 l F *ABS*      0x00000000 done.c
0x00000010 g   *ABS*      0x00000000 __call_exitprocs.nstackwords
0x00000002 g   *ABS*      0x00000000 _cleanup.nstackwords
0x00000000 g   *ABS*      0x00000000 _done.nstackwords
0x00000001 g   *ABS*      0x00000000 __call_exitprocs.maxcores
0x00000001 g   *ABS*      0x00000000 _cleanup.maxcores
0x00000000 g   *ABS*      0x00000000 _done.maxcores
0x00000000 g   *ABS*      0x00000000 __call_exitprocs.maxtimers
0x00000000 g   *ABS*      0x00000000 _cleanup.maxtimers
0x00000000 g   *ABS*      0x00000000 _done.maxtimers
0x00000000 g   *ABS*      0x00000000 __call_exitprocs.maxchanends
0x00000000 g   *ABS*      0x00000000 _cleanup.maxchanends
0x00000000 g   *ABS*      0x00000000 _done.maxchanends
0x00080d00 g f .text      0x0000000a __call_exitprocs
0x00080d14 g f .text      0x0000000a _cleanup
0x00080d20 g f .text      0x0000000e _done
0x00000050 l   .trap_info 0x00000000 .trap_info
0x000809bc l   .text      0x00000000 $s.20
0x00000000 l F *ABS*      0x00000000 exit.c
0x00000000 g   *ABS*      0x00000000 _exit.nstackwords
0x00000000 g   *ABS*      0x00000000 _exit.maxcores
0x00000000 g   *ABS*      0x00000000 _exit.maxtimers
0x00000000 g   *ABS*      0x00000000 _exit.maxchanends
0x0000003a g   *ABS*      0x00000000 exit.nstackwords
0x00000000 g   *ABS*      0x00000000 __lock_fair_try_acquire.nstackwords
0x00000001 g   *ABS*      0x00000000 exit.maxcores
0x00000001 g   *ABS*      0x00000000 __lock_fair_try_acquire.maxcores
0x00000000 g   *ABS*      0x00000000 exit.maxtimers
0x00000000 g   *ABS*      0x00000000 __lock_fair_try_acquire.maxtimers
0x00000000 g   *ABS*      0x00000000 exit.maxchanends
0x00000000 g   *ABS*      0x00000000 __lock_fair_try_acquire.maxchanends
0x000813bc l   .dp.bss.4  0x00000000 .dp.bss.4
0x00080d30 g f .text      0x00000010 _exit
0x00000058 l   .trap_info 0x00000000 .trap_info
0x000809d4 l   .text      0x00000000 $s.33
0x00000000 l F *ABS*      0x00000000 exception.S
0x000800c4 l   .crt       0x00000000 .crt
0x00000001 l   *ABS*      0x00000000 _DoException.locnochandec
0x00000001 l   *ABS*      0x00000000 _DoException.locnoglobalaccess
0x00000001 l   *ABS*      0x00000000 _DoException.locnointerfaceaccess
0x00000001 l   *ABS*      0x00000000 _DoException.locnonotificationselect
0x000800c4 l   .crt       0x00000000 $s.5
0x00000000 l F *ABS*      0x00000000 memset.S
0x00081210 l   .cp.rodata.cst4 0x00000000 .cp.rodata.cst4
0x000810c8 l   .cp.rodata 0x00000000 .cp.rodata
0x00000000 g   *ABS*      0x00000000 memset.maxchanends
0x00000000 g   *ABS*      0x00000000 memset.maxtimers
0x00000000 g   *ABS*      0x00000000 memset.maxcores
0x00000001 l   *ABS*      0x00000000 memset.locnochandec
0x00000001 l   *ABS*      0x00000000 memset.locnoglobalaccess
0x00000001 l   *ABS*      0x00000000 memset.locnointerfaceaccess
0x00000001 l   *ABS*      0x00000000 memset.locnonotificationselect
0x000809f0 l   .text      0x00000000 $d.7
0x00000000 l F *ABS*      0x00000000 __init_timers.c
0x00000001 l   *ABS*      0x00000000 __init_threadlocal_timer.locnoside
0x00000001 l   *ABS*      0x00000000 __init_threadlocal_timer.locnochandec
0x00000001 l   *ABS*      0x00000000 __init_threadlocal_timer.locnoglobalaccess
0x00000001 l   *ABS*      0x00000000 __init_threadlocal_timer.locnointerfaceaccess
0x00000001 l   *ABS*      0x00000000 __init_threadlocal_timer.locnonotificationselect
0x00000001 l   *ABS*      0x00000000 __free_threadlocal_timer.locnoside
0x00000001 l   *ABS*      0x00000000 __free_threadlocal_timer.locnochandec
0x00000001 l   *ABS*      0x00000000 __free_threadlocal_timer.locnoglobalaccess
0x00000001 l   *ABS*      0x00000000 __free_threadlocal_timer.locnointerfaceaccess
0x00000001 l   *ABS*      0x00000000 __free_threadlocal_timer.locnonotificationselect
0x00000000 g   *ABS*      0x00000000 __init_threadlocal_timer.nstackwords
0x00000001 g   *ABS*      0x00000000 __init_threadlocal_timer.maxcores
0x00000000 g   *ABS*      0x00000000 __init_threadlocal_timer.maxtimers
0x00000000 g   *ABS*      0x00000000 __init_threadlocal_timer.maxchanends
0x00000000 g   *ABS*      0x00000000 __free_threadlocal_timer.nstackwords
0x00000001 g   *ABS*      0x00000000 __free_threadlocal_timer.maxcores
0x00000000 g   *ABS*      0x00000000 __free_threadlocal_timer.maxtimers
0x00000000 g   *ABS*      0x00000000 __free_threadlocal_timer.maxchanends
0x000809f8 l   .text      0x00000000 $s.6
0x00080a0c l   .text      0x00000000 $s.7
0x00000000 l F *ABS*      0x00000000 xscope_shared_c.c
0x00006f21 l   .debug_info 0x00000000 .debug_info
0x00000947 l   .debug_abbrev 0x00000000 .debug_abbrev
0x0000158e l   .debug_line 0x00000000 .debug_line
0x0000069e l   .debug_str 0x00000000 .debug_str
0x000015d3 l   .debug_loc 0x00000000 .debug_loc
0x000015f8 l   .debug_ranges 0x00000000 .debug_ranges
0x00080a1c g f .text      0x00000010 xscope_lock_init
0x00000000 g   *ABS*      0x00000000 xscope_lock_init.nstackwords
0x00000001 g   *ABS*      0x00000000 xscope_lock_init.maxcores
0x00000000 g   *ABS*      0x00000000 xscope_lock_init.maxtimers
0x00000000 g   *ABS*      0x00000000 xscope_lock_init.maxchanends
0x00080a2c g f .text      0x00000008 xscope_lock_deinit
0x00000000 g   *ABS*      0x00000000 xscope_lock_deinit.nstackwords
0x00000001 g   *ABS*      0x00000000 xscope_lock_deinit.maxcores
0x00000000 g   *ABS*      0x00000000 xscope_lock_deinit.maxtimers
0x00000000 g   *ABS*      0x00000000 xscope_lock_deinit.maxchanends
0x00080a34 g f .text      0x0000001c xscope_lock_acquire
0x00000000 g   *ABS*      0x00000000 xscope_lock_acquire.nstackwords
0x00000001 g   *ABS*      0x00000000 xscope_lock_acquire.maxcores
0x00000000 g   *ABS*      0x00000000 xscope_lock_acquire.maxtimers
0x00000000 g   *ABS*      0x00000000 xscope_lock_acquire.maxchanends
0x00080a50 g f .text      0x00000010 xscope_lock_release
0x00000000 g   *ABS*      0x00000000 xscope_lock_release.nstackwords
0x00000001 g   *ABS*      0x00000000 xscope_lock_release.maxcores
0x00000000 g   *ABS*      0x00000000 xscope_lock_release.maxtimers
0x00000000 g   *ABS*      0x00000000 xscope_lock_release.maxchanends
0x00000000 g   *ABS*      0x00000000 xscope_set_io_config.nstackwords
0x00000001 g   *ABS*      0x00000000 xscope_set_io_config.maxcores
0x00000000 g   *ABS*      0x00000000 xscope_set_io_config.maxtimers
0x00000000 g   *ABS*      0x00000000 xscope_set_io_config.maxchanends
0x000813bc l   .dp.bss.4  0x00000000 .dp.bss.4
0x000813bc g O .dp.bss.4  0x00000004 xscope_lock
0x00081320 g O .dp.data   0x00000004 XSCOPE_REDIRECT_IO
0x00000060 l   .trap_info 0x00000000 .trap_info
0x00080a1c l   .text      0x00000000 $d.89
0x00080a2c l   .text      0x00000000 $d.90
0x00080a34 l   .text      0x00000000 $d.91
0x00080a50 l   .text      0x00000000 $d.92
0x00080a60 l   .text      0x00000000 $d.93
0x00000000 l F *ABS*      0x00000000 xscope_syscall_write.S
0x00000001 l   *ABS*      0x00000000 xscope_syscall_write.locnochandec
0x00000001 l   *ABS*      0x00000000 xscope_syscall_write.locnoglobalaccess
0x00000001 l   *ABS*      0x00000000 xscope_syscall_write.locnointerfaceaccess
0x00000001 l   *ABS*      0x00000000 xscope_syscall_write.locnonotificationselect
0x00000002 g   *ABS*      0x00000000 _DoSyscallErrno.nstackwords
0x00000000 g   *ABS*      0x00000000 _DoSyscallErrno.maxchanends
0x00000000 g   *ABS*      0x00000000 _DoSyscallErrno.maxtimers
0x00000001 g   *ABS*      0x00000000 _DoSyscallErrno.maxcores
0x00080d78 g f .text      0x00000020 _DoSyscallErrno
0x00080a6c l   .text      0x00000000 $s.13
0x00000000 l F *ABS*      0x00000000 xscope_api.c
0x00081324 g O .dp.data   0x00000004 __sodChan
0x000070bc l   .debug_info 0x00000000 .debug_info
0x00000a39 l   .debug_abbrev 0x00000000 .debug_abbrev
0x0000171f l   .debug_line 0x00000000 .debug_line
0x0000069e l   .debug_str 0x00000000 .debug_str
0x000015db l   .debug_loc 0x00000000 .debug_loc
0x00001650 l   .debug_ranges 0x00000000 .debug_ranges
0x00080a7c  wf .text      0x00000008 xscope_user_init
0x00000000  w  *ABS*      0x00000000 xscope_user_init.nstackwords
0x00000001  w  *ABS*      0x00000000 xscope_user_init.maxcores
0x00000000  w  *ABS*      0x00000000 xscope_user_init.maxtimers
0x00000000  w  *ABS*      0x00000000 xscope_user_init.maxchanends
0x00081210 l   .cp.rodata.cst4 0x00000000 .cp.rodata.cst4
0x00080a84 g f .text      0x000000e0 xscope_constructor
0x0000000a g   *ABS*      0x00000000 xscope_constructor.nstackwords
0x00000000 g   *ABS*      0x00000000 xscope_gettime_local_timer.nstackwords
0x00000000 g   *ABS*      0x00000000 xscope_start_ref_clock.nstackwords
0x00000002 g   *ABS*      0x00000000 xscope_tx_init.nstackwords
0x00000002 g   *ABS*      0x00000000 xscope_tx_char.nstackwords
0x00000004 g   *ABS*      0x00000000 xscope_tx_int.nstackwords
0x00000002 g   *ABS*      0x00000000 xscope_tx_end.nstackwords
0x00000002 g   *ABS*      0x00000000 xscope_tx_deinit.nstackwords
0x00000000 g   *ABS*      0x00000000 xscope_wait.nstackwords
0x00000000 g   *ABS*      0x00000000 xscope_stop_ref_clock.nstackwords
0x00000000 g   *ABS*      0x00000000 write_pswitch_reg.nstackwords
0x00000001 g   *ABS*      0x00000000 xscope_constructor.maxcores
0x00000001 g   *ABS*      0x00000000 write_pswitch_reg.maxcores
0x00000001 g   *ABS*      0x00000000 xscope_tx_char.maxcores
0x00000001 g   *ABS*      0x00000000 xscope_tx_deinit.maxcores
0x00000001 g   *ABS*      0x00000000 xscope_tx_end.maxcores
0x00000001 g   *ABS*      0x00000000 xscope_tx_init.maxcores
0x00000001 g   *ABS*      0x00000000 xscope_tx_int.maxcores
0x00000001 g   *ABS*      0x00000000 xscope_wait.maxcores
0x00000001 g   *ABS*      0x00000000 xscope_constructor.maxtimers
0x00000000 g   *ABS*      0x00000000 write_pswitch_reg.maxtimers
0x00000000 g   *ABS*      0x00000000 xscope_tx_char.maxtimers
0x00000000 g   *ABS*      0x00000000 xscope_tx_deinit.maxtimers
0x00000000 g   *ABS*      0x00000000 xscope_tx_end.maxtimers
0x00000000 g   *ABS*      0x00000000 xscope_tx_init.maxtimers
0x00000000 g   *ABS*      0x00000000 xscope_tx_int.maxtimers
0x00000001 g   *ABS*      0x00000000 xscope_wait.maxtimers
0x00000001 g   *ABS*      0x00000000 xscope_constructor.maxchanends
0x00000001 g   *ABS*      0x00000000 write_pswitch_reg.maxchanends
0x00000000 g   *ABS*      0x00000000 xscope_tx_char.maxchanends
0x00000000 g   *ABS*      0x00000000 xscope_tx_deinit.maxchanends
0x00000000 g   *ABS*      0x00000000 xscope_tx_end.maxchanends
0x00000000 g   *ABS*      0x00000000 xscope_tx_init.maxchanends
0x00000000 g   *ABS*      0x00000000 xscope_tx_int.maxchanends
0x00000000 g   *ABS*      0x00000000 xscope_wait.maxchanends
0x00000016 g   *ABS*      0x00000000 xscope_register.nstackwords
0x00000001 g   *ABS*      0x00000000 xscope_register.maxcores
0x00000000 g   *ABS*      0x00000000 xscope_register.maxtimers
0x00000000 g   *ABS*      0x00000000 xscope_register.maxchanends
0x00000002 g   *ABS*      0x00000000 xscope_config_io.nstackwords
0x00000001 g   *ABS*      0x00000000 xscope_config_io.maxcores
0x00000000 g   *ABS*      0x00000000 xscope_config_io.maxtimers
0x00000000 g   *ABS*      0x00000000 xscope_config_io.maxchanends
0x00000000 g   *ABS*      0x00000000 xscope_enable.nstackwords
0x00000001 g   *ABS*      0x00000000 xscope_enable.maxcores
0x00000000 g   *ABS*      0x00000000 xscope_enable.maxtimers
0x00000000 g   *ABS*      0x00000000 xscope_enable.maxchanends
0x00000000 g   *ABS*      0x00000000 xscope_disable.nstackwords
0x00000001 g   *ABS*      0x00000000 xscope_disable.maxcores
0x00000000 g   *ABS*      0x00000000 xscope_disable.maxtimers
0x00000000 g   *ABS*      0x00000000 xscope_disable.maxchanends
0x00000002 g   *ABS*      0x00000000 convert_to_int.nstackwords
0x00000000 g   *ABS*      0x00000000 __misaligned_load.nstackwords
0x00000001 g   *ABS*      0x00000000 convert_to_int.maxcores
0x00000000 g   *ABS*      0x00000000 convert_to_int.maxtimers
0x00000000 g   *ABS*      0x00000000 convert_to_int.maxchanends
0x00000004 g   *ABS*      0x00000000 convert_to_longlong.nstackwords
0x00000001 g   *ABS*      0x00000000 convert_to_longlong.maxcores
0x00000000 g   *ABS*      0x00000000 convert_to_longlong.maxtimers
0x00000000 g   *ABS*      0x00000000 convert_to_longlong.maxchanends
0x00000002 g   *ABS*      0x00000000 xscope_float.nstackwords
0x00000000 g   *ABS*      0x00000000 xscope_int.nstackwords
0x00000001 g   *ABS*      0x00000000 xscope_float.maxcores
0x00000001 g   *ABS*      0x00000000 xscope_int.maxcores
0x00000000 g   *ABS*      0x00000000 xscope_float.maxtimers
0x00000000 g   *ABS*      0x00000000 xscope_int.maxtimers
0x00000000 g   *ABS*      0x00000000 xscope_float.maxchanends
0x00000000 g   *ABS*      0x00000000 xscope_int.maxchanends
0x00000003 g   *ABS*      0x00000000 xscope_core_float.nstackwords
0x00000001 g   *ABS*      0x00000000 xscope_core_int.nstackwords
0x00000001 g   *ABS*      0x00000000 xscope_core_float.maxcores
0x00000001 g   *ABS*      0x00000000 xscope_core_int.maxcores
0x00000000 g   *ABS*      0x00000000 xscope_core_float.maxtimers
0x00000000 g   *ABS*      0x00000000 xscope_core_int.maxtimers
0x00000000 g   *ABS*      0x00000000 xscope_core_float.maxchanends
0x00000000 g   *ABS*      0x00000000 xscope_core_int.maxchanends
0x00000002 g   *ABS*      0x00000000 xscope_double.nstackwords
0x00000000 g   *ABS*      0x00000000 xscope_longlong.nstackwords
0x00000001 g   *ABS*      0x00000000 xscope_double.maxcores
0x00000001 g   *ABS*      0x00000000 xscope_longlong.maxcores
0x00000000 g   *ABS*      0x00000000 xscope_double.maxtimers
0x00000000 g   *ABS*      0x00000000 xscope_longlong.maxtimers
0x00000000 g   *ABS*      0x00000000 xscope_double.maxchanends
0x00000000 g   *ABS*      0x00000000 xscope_longlong.maxchanends
0x00000003 g   *ABS*      0x00000000 xscope_core_double.nstackwords
0x00000001 g   *ABS*      0x00000000 xscope_core_longlong.nstackwords
0x00000001 g   *ABS*      0x00000000 xscope_core_double.maxcores
0x00000001 g   *ABS*      0x00000000 xscope_core_longlong.maxcores
0x00000000 g   *ABS*      0x00000000 xscope_core_double.maxtimers
0x00000000 g   *ABS*      0x00000000 xscope_core_longlong.maxtimers
0x00000000 g   *ABS*      0x00000000 xscope_core_double.maxchanends
0x00000000 g   *ABS*      0x00000000 xscope_core_longlong.maxchanends
0x00000002 g   *ABS*      0x00000000 xscope_start.nstackwords
0x00000000 g   *ABS*      0x00000000 xscope_start_int.nstackwords
0x00000001 g   *ABS*      0x00000000 xscope_start.maxcores
0x00000001 g   *ABS*      0x00000000 xscope_start_int.maxcores
0x00000000 g   *ABS*      0x00000000 xscope_start.maxtimers
0x00000000 g   *ABS*      0x00000000 xscope_start_int.maxtimers
0x00000000 g   *ABS*      0x00000000 xscope_start.maxchanends
0x00000000 g   *ABS*      0x00000000 xscope_start_int.maxchanends
0x00000003 g   *ABS*      0x00000000 xscope_core_start.nstackwords
0x00000001 g   *ABS*      0x00000000 xscope_core_start_int.nstackwords
0x00000001 g   *ABS*      0x00000000 xscope_core_start.maxcores
0x00000001 g   *ABS*      0x00000000 xscope_core_start_int.maxcores
0x00000000 g   *ABS*      0x00000000 xscope_core_start.maxtimers
0x00000000 g   *ABS*      0x00000000 xscope_core_start_int.maxtimers
0x00000000 g   *ABS*      0x00000000 xscope_core_start.maxchanends
0x00000000 g   *ABS*      0x00000000 xscope_core_start_int.maxchanends
0x00000002 g   *ABS*      0x00000000 xscope_stop.nstackwords
0x00000000 g   *ABS*      0x00000000 xscope_stop_int.nstackwords
0x00000001 g   *ABS*      0x00000000 xscope_stop.maxcores
0x00000001 g   *ABS*      0x00000000 xscope_stop_int.maxcores
0x00000000 g   *ABS*      0x00000000 xscope_stop.maxtimers
0x00000000 g   *ABS*      0x00000000 xscope_stop_int.maxtimers
0x00000000 g   *ABS*      0x00000000 xscope_stop.maxchanends
0x00000000 g   *ABS*      0x00000000 xscope_stop_int.maxchanends
0x00000003 g   *ABS*      0x00000000 xscope_core_stop.nstackwords
0x00000001 g   *ABS*      0x00000000 xscope_core_stop_int.nstackwords
0x00000001 g   *ABS*      0x00000000 xscope_core_stop.maxcores
0x00000001 g   *ABS*      0x00000000 xscope_core_stop_int.maxcores
0x00000000 g   *ABS*      0x00000000 xscope_core_stop.maxtimers
0x00000000 g   *ABS*      0x00000000 xscope_core_stop_int.maxtimers
0x00000000 g   *ABS*      0x00000000 xscope_core_stop.maxchanends
0x00000000 g   *ABS*      0x00000000 xscope_core_stop_int.maxchanends
0x00000012 g   *ABS*      0x00000000 xscope_bytes.nstackwords
0x00000000 g   *ABS*      0x00000000 xscope_gettime.nstackwords
0x00000001 g   *ABS*      0x00000000 xscope_bytes.maxcores
0x00000000 g   *ABS*      0x00000000 xscope_bytes.maxtimers
0x00000000 g   *ABS*      0x00000000 xscope_bytes.maxchanends
0x00000014 g   *ABS*      0x00000000 xscope_core_bytes.nstackwords
0x00000001 g   *ABS*      0x00000000 xscope_core_bytes.maxcores
0x00000000 g   *ABS*      0x00000000 xscope_core_bytes.maxtimers
0x00000000 g   *ABS*      0x00000000 xscope_core_bytes.maxchanends
0x0000000a g   *ABS*      0x00000000 xscope_syscall_data.nstackwords
0x00000001 g   *ABS*      0x00000000 xscope_syscall_data.maxcores
0x00000000 g   *ABS*      0x00000000 xscope_syscall_data.maxtimers
0x00000000 g   *ABS*      0x00000000 xscope_syscall_data.maxchanends
0x00080da0 g f .text      0x00000008 xscope_gettime_local_timer
0x00080dc4 g f .text      0x0000001c xscope_start_ref_clock
0x00080e4c g f .text      0x00000010 xscope_tx_init
0x00080e5c g f .text      0x0000000c xscope_tx_deinit
0x00080de0 g f .text      0x0000001c xscope_stop_ref_clock
0x00080dfc g f .text      0x0000000c xscope_tx_char
0x00080e08 g f .text      0x00000038 xscope_tx_int
0x00080e40 g f .text      0x0000000c xscope_tx_end
0x00080c88 g f .text      0x0000000e write_pswitch_reg
0x00080da8 g f .text      0x0000001c xscope_wait
0x00080d98 g f .text      0x00000008 xscope_gettime
0x00081328 g   .dp.data   0x00000000 __sodFlag
0x00000068 l   .trap_info 0x00000000 .trap_info
0x00080a7c l   .text      0x00000000 $d.713
0x00080a84 l   .text      0x00000000 $d.714
0x00080b64 l   .text      0x00000000 $d.731
0x00000000 l F *ABS*      0x00000000 timer.xc
0x00000000 l   *ABS*      0x00000000 delay_ticks_longlong.locnoside
0x00000000 l   *ABS*      0x00000000 delay_ticks.locnoside
0x00081210 l   .cp.rodata.cst4 0x00000000 .cp.rodata.cst4
0x0000001a g   *ABS*      0x00000000 delay_ticks_longlong.nstackwords
0x00000001 g   *ABS*      0x00000000 delay_ticks_longlong.maxcores
0x00000000 g   *ABS*      0x00000000 delay_ticks_longlong.maxtimers
0x00000000 g   *ABS*      0x00000000 delay_ticks_longlong.maxchanends
0x0000001c g   *ABS*      0x00000000 delay_seconds.nstackwords
0x00000001 g   *ABS*      0x00000000 delay_seconds.maxcores
0x00000000 g   *ABS*      0x00000000 delay_seconds.maxtimers
0x00000000 g   *ABS*      0x00000000 delay_seconds.maxchanends
0x0000001c g   *ABS*      0x00000000 delay_milliseconds.nstackwords
0x00000001 g   *ABS*      0x00000000 delay_milliseconds.maxcores
0x00000000 g   *ABS*      0x00000000 delay_milliseconds.maxtimers
0x00000000 g   *ABS*      0x00000000 delay_milliseconds.maxchanends
0x0000001c g   *ABS*      0x00000000 delay_microseconds.nstackwords
0x00000001 g   *ABS*      0x00000000 delay_microseconds.maxcores
0x00000000 g   *ABS*      0x00000000 delay_microseconds.maxtimers
0x00000000 g   *ABS*      0x00000000 delay_microseconds.maxchanends
0x000000cf l   .xtacalltable 0x00000000 .xtacalltable
0x00000000 l   .xtaendpointtable 0x00000000 .xtaendpointtable
0x00000000 l   .xtalabeltable 0x00000000 .xtalabeltable
0x00000000 l   .xtalooplabeltable 0x00000000 .xtalooplabeltable
0x00000070 l   .trap_info 0x00000000 .trap_info
0x00080be0 l   .text      0x00000000 $s.62
0x00000000 l F *ABS*      0x00000000 __start_other_cores.S
0x00080e68 g f .text      0x00000016 __start_core
0x00080c0c l   .text      0x00000000 $s.2
0x00000000 l F *ABS*      0x00000000 atexit.c
0x00000008 g   *ABS*      0x00000000 __register_exitproc.nstackwords
0x00000001 g   *ABS*      0x00000000 __register_exitproc.maxcores
0x00000000 g   *ABS*      0x00000000 __register_exitproc.maxtimers
0x00000000 g   *ABS*      0x00000000 __register_exitproc.maxchanends
0x00080e80 g f .text      0x000000a0 __register_exitproc
0x00000078 l   .trap_info 0x00000000 .trap_info
0x00080c58 l   .text      0x00000000 $s.8
0x00000000 l F *ABS*      0x00000000 strlen.c
0x00000080 l   .trap_info 0x00000000 .trap_info
0x00080c6c l   .text      0x00000000 $s.4
0x00000000 l F *ABS*      0x00000000 memcpy.S
0x000810cc l   .cp.rodata 0x00000000 .cp.rodata
0x00000000 g   *ABS*      0x00000000 memcpy.maxchanends
0x00000000 g   *ABS*      0x00000000 memcpy.maxtimers
0x00000000 g   *ABS*      0x00000000 memcpy.maxcores
0x00000001 l   *ABS*      0x00000000 memcpy.locnochandec
0x00000001 l   *ABS*      0x00000000 memcpy.locnoglobalaccess
0x00000001 l   *ABS*      0x00000000 memcpy.locnointerfaceaccess
0x00000001 l   *ABS*      0x00000000 memcpy.locnonotificationselect
0x00080c80 g f .text      0x00000000 __memcpy_4
0x00000003 g   *ABS*      0x00000000 __memcpy_4.nstackwords
0x00000000 g   *ABS*      0x00000000 __memcpy_4.maxchanends
0x00000000 g   *ABS*      0x00000000 __memcpy_4.maxtimers
0x00000000 g   *ABS*      0x00000000 __memcpy_4.maxcores
0x00000001 l   *ABS*      0x00000000 __memcpy_4.locnochandec
0x00000001 l   *ABS*      0x00000000 __memcpy_4.locnoglobalaccess
0x00000001 l   *ABS*      0x00000000 __memcpy_4.locnointerfaceaccess
0x00000001 l   *ABS*      0x00000000 __memcpy_4.locnonotificationselect
0x00000000 g   *ABS*      0x00000000 memmove.nstackwords
0x00000000 g   *ABS*      0x00000000 memmove.maxchanends
0x00000000 g   *ABS*      0x00000000 memmove.maxtimers
0x00000000 g   *ABS*      0x00000000 memmove.maxcores
0x00000001 l   *ABS*      0x00000000 memmove.locnochandec
0x00000001 l   *ABS*      0x00000000 memmove.locnoglobalaccess
0x00000001 l   *ABS*      0x00000000 memmove.locnointerfaceaccess
0x00000001 l   *ABS*      0x00000000 memmove.locnonotificationselect
0x00080c80 l   .text      0x00000000 $d.9
0x00000000 l F *ABS*      0x00000000 ctype_.c
0x000810d0 l   .cp.rodata 0x00000000 .cp.rodata
0x00000101 g   *ABS*      0x00000000 _ctype_.globound
0x000810d0 g O .cp.rodata 0x00000101 _ctype_
0x00081344 l   .dp.data.4 0x00000000 .dp.data.4
0x00000088 l   .trap_info 0x00000000 .trap_info
0x00000000 l F *ABS*      0x00000000 udivdi3.c
0x0000000c g   *ABS*      0x00000000 __udivmoddi4.nstackwords
0x00000001 g   *ABS*      0x00000000 __udivdi3.maxcores
0x00000001 g   *ABS*      0x00000000 __udivmoddi4.maxcores
0x00000000 g   *ABS*      0x00000000 __udivdi3.maxtimers
0x00000000 g   *ABS*      0x00000000 __udivmoddi4.maxtimers
0x00000000 g   *ABS*      0x00000000 __udivdi3.maxchanends
0x00000000 g   *ABS*      0x00000000 __udivmoddi4.maxchanends
0x00000090 l   .trap_info 0x00000000 .trap_info
0x00000000 l F *ABS*      0x00000000 switch_reg.S
0x00000000 l   *ABS*      0x00000000 read_switch_reg.nstackwords
0x00000000 l   *ABS*      0x00000000 return_zero.nstackwords
0x00000001 l   *ABS*      0x00000000 read_switch_reg.maxcores
0x00000001 l   *ABS*      0x00000000 return_zero.maxcores
0x00000000 l   *ABS*      0x00000000 read_switch_reg.maxtimers
0x00000000 l   *ABS*      0x00000000 return_zero.maxtimers
0x00000001 l   *ABS*      0x00000000 read_switch_reg.maxchanends
0x00000000 l   *ABS*      0x00000000 return_zero.maxchanends
0x00000000 l   *ABS*      0x00000000 read_sswitch_reg.locnoside
0x00000001 l   *ABS*      0x00000000 read_sswitch_reg.locnochandec
0x00000001 l   *ABS*      0x00000000 read_sswitch_reg.locnoglobalaccess
0x00000001 l   *ABS*      0x00000000 read_sswitch_reg.locnointerfaceaccess
0x00000001 l   *ABS*      0x00000000 read_sswitch_reg.locnonotificationselect
0x00000000 g   *ABS*      0x00000000 read_pswitch_reg.nstackwords
0x00000001 g   *ABS*      0x00000000 read_pswitch_reg.maxcores
0x00000000 g   *ABS*      0x00000000 read_pswitch_reg.maxtimers
0x00000001 g   *ABS*      0x00000000 read_pswitch_reg.maxchanends
0x00000000 l   *ABS*      0x00000000 read_pswitch_reg.locnoside
0x00000001 l   *ABS*      0x00000000 read_pswitch_reg.locnochandec
0x00000001 l   *ABS*      0x00000000 read_pswitch_reg.locnoglobalaccess
0x00000001 l   *ABS*      0x00000000 read_pswitch_reg.locnointerfaceaccess
0x00000001 l   *ABS*      0x00000000 read_pswitch_reg.locnonotificationselect
0x00000000 l   *ABS*      0x00000000 read_switch_reg.locnoside
0x00000001 l   *ABS*      0x00000000 read_switch_reg.locnochandec
0x00000001 l   *ABS*      0x00000000 read_switch_reg.locnoglobalaccess
0x00000001 l   *ABS*      0x00000000 read_switch_reg.locnointerfaceaccess
0x00000001 l   *ABS*      0x00000000 read_switch_reg.locnonotificationselect
0x00000000 g   *ABS*      0x00000000 write_sswitch_reg.nstackwords
0x00000000 l   *ABS*      0x00000000 write_switch_reg.nstackwords
0x00000001 g   *ABS*      0x00000000 write_sswitch_reg.maxcores
0x00000001 l   *ABS*      0x00000000 write_switch_reg.maxcores
0x00000000 g   *ABS*      0x00000000 write_sswitch_reg.maxtimers
0x00000000 l   *ABS*      0x00000000 write_switch_reg.maxtimers
0x00000001 g   *ABS*      0x00000000 write_sswitch_reg.maxchanends
0x00000001 l   *ABS*      0x00000000 write_switch_reg.maxchanends
0x00000000 l   *ABS*      0x00000000 write_sswitch_reg.locnoside
0x00000001 l   *ABS*      0x00000000 write_sswitch_reg.locnochandec
0x00000001 l   *ABS*      0x00000000 write_sswitch_reg.locnoglobalaccess
0x00000001 l   *ABS*      0x00000000 write_sswitch_reg.locnointerfaceaccess
0x00000001 l   *ABS*      0x00000000 write_sswitch_reg.locnonotificationselect
0x00000000 l   *ABS*      0x00000000 write_pswitch_reg.locnoside
0x00000001 l   *ABS*      0x00000000 write_pswitch_reg.locnochandec
0x00000001 l   *ABS*      0x00000000 write_pswitch_reg.locnoglobalaccess
0x00000001 l   *ABS*      0x00000000 write_pswitch_reg.locnointerfaceaccess
0x00000001 l   *ABS*      0x00000000 write_pswitch_reg.locnonotificationselect
0x00000000 l   *ABS*      0x00000000 write_sswitch_reg_no_ack.locnoside
0x00000001 l   *ABS*      0x00000000 write_sswitch_reg_no_ack.locnochandec
0x00000001 l   *ABS*      0x00000000 write_sswitch_reg_no_ack.locnoglobalaccess
0x00000001 l   *ABS*      0x00000000 write_sswitch_reg_no_ack.locnointerfaceaccess
0x00000001 l   *ABS*      0x00000000 write_sswitch_reg_no_ack.locnonotificationselect
0x00000000 g   *ABS*      0x00000000 write_pswitch_reg_no_ack.nstackwords
0x00000001 g   *ABS*      0x00000000 write_pswitch_reg_no_ack.maxcores
0x00000000 g   *ABS*      0x00000000 write_pswitch_reg_no_ack.maxtimers
0x00000001 g   *ABS*      0x00000000 write_pswitch_reg_no_ack.maxchanends
0x00000000 l   *ABS*      0x00000000 write_pswitch_reg_no_ack.locnoside
0x00000001 l   *ABS*      0x00000000 write_pswitch_reg_no_ack.locnochandec
0x00000001 l   *ABS*      0x00000000 write_pswitch_reg_no_ack.locnoglobalaccess
0x00000001 l   *ABS*      0x00000000 write_pswitch_reg_no_ack.locnointerfaceaccess
0x00000001 l   *ABS*      0x00000000 write_pswitch_reg_no_ack.locnonotificationselect
0x00080c98 l f .text      0x00000054 write_switch_reg
0x00080cbc l   .text      0x00000000 build_return_no_ack
0x00080cc4 l   .text      0x00000000 write_switch_reg_send
0x00080cde l   .text      0x00000000 write_switch_reg_return_0
0x00080ce4 l   .text      0x00000000 write_switch_reg_free_and_return_1
0x00000000 l   *ABS*      0x00000000 write_switch_reg.locnoside
0x00000001 l   *ABS*      0x00000000 write_switch_reg.locnochandec
0x00000001 l   *ABS*      0x00000000 write_switch_reg.locnoglobalaccess
0x00000001 l   *ABS*      0x00000000 write_switch_reg.locnointerfaceaccess
0x00000001 l   *ABS*      0x00000000 write_switch_reg.locnonotificationselect
0x00000001 l   *ABS*      0x00000000 return_zero.locnoside
0x00000001 l   *ABS*      0x00000000 return_zero.locnochandec
0x00000001 l   *ABS*      0x00000000 return_zero.locnoglobalaccess
0x00000001 l   *ABS*      0x00000000 return_zero.locnointerfaceaccess
0x00000001 l   *ABS*      0x00000000 return_zero.locnonotificationselect
0x00000000 l   *ABS*      0x00000000 get_local_tile_id.locnoside
0x00000001 l   *ABS*      0x00000000 get_local_tile_id.locnochandec
0x00000001 l   *ABS*      0x00000000 get_local_tile_id.locnoglobalaccess
0x00000001 l   *ABS*      0x00000000 get_local_tile_id.locnointerfaceaccess
0x00000001 l   *ABS*      0x00000000 get_local_tile_id.locnonotificationselect
0x00008002 g   *ABS*      0x00000000 _local_tile_id
0x00080c88 l   .text      0x00000000 $s.44
0x00080c98 l   .text      0x00000000 $s.47
0x00080cec l   .text      0x00000000 $s.49
0x00000000 l F *ABS*      0x00000000 __timers.xc
0x00081300 l   .dp.data   0x00000000 .dp.data
0x00000008 g   *ABS*      0x00000000 __timers.globound
0x000813b4 l   .dp.bss    0x00000000 .dp.bss
0x00000008 g   *ABS*      0x00000000 __timer_base.globound
0x00000008 g   *ABS*      0x00000000 __timer_delta.globound
0x00000098 l   .trap_info 0x00000000 .trap_info
0x00000000 l F *ABS*      0x00000000 syscall.S
0x00080cf8 l   .text      0x00000000 $s.4
0x00000000 l F *ABS*      0x00000000 __call_atexit.c
0x00080f20 g f .text      0x000000cc __call_exitprocs_impl
0x0000000e g   *ABS*      0x00000000 __call_exitprocs_impl.nstackwords
0x00000001 g   *ABS*      0x00000000 __call_exitprocs_impl.maxcores
0x00000000 g   *ABS*      0x00000000 __call_exitprocs_impl.maxtimers
0x00000000 g   *ABS*      0x00000000 __call_exitprocs_impl.maxchanends
0x000000a0 l   .trap_info 0x00000000 .trap_info
0x00080d00 l   .text      0x00000000 $s.12
0x00000000 l F *ABS*      0x00000000 cleanup.c
0x00080d0c  wf .text      0x00000008 _cleanup_impl
0x00000000  w  *ABS*      0x00000000 _cleanup_impl.nstackwords
0x00000001  w  *ABS*      0x00000000 _cleanup_impl.maxcores
0x00000000  w  *ABS*      0x00000000 _cleanup_impl.maxtimers
0x00000000  w  *ABS*      0x00000000 _cleanup_impl.maxchanends
0x000000a8 l   .trap_info 0x00000000 .trap_info
0x00080d0c l   .text      0x00000000 $s.11
0x00080d14 l   .text      0x00000000 $s.12
0x00000000 l F *ABS*      0x00000000 done.S
0x00000001 l   *ABS*      0x00000000 _done.locnochandec
0x00000001 l   *ABS*      0x00000000 _done.locnoglobalaccess
0x00000001 l   *ABS*      0x00000000 _done.locnointerfaceaccess
0x00000001 l   *ABS*      0x00000000 _done.locnonotificationselect
0x00080d20 l   .text      0x00000000 $s.5
0x00000000 l F *ABS*      0x00000000 exit.S
0x00000001 l   *ABS*      0x00000000 _exit.locnochandec
0x00000001 l   *ABS*      0x00000000 _exit.locnoglobalaccess
0x00000001 l   *ABS*      0x00000000 _exit.locnointerfaceaccess
0x00000001 l   *ABS*      0x00000000 _exit.locnonotificationselect
0x00080d30 l   .text      0x00000000 $s.5
0x00000000 l F *ABS*      0x00000000 lock.c
0x00000000 g   *ABS*      0x00000000 __free_libc_hwlock.nstackwords
0x00000001 g   *ABS*      0x00000000 __free_libc_hwlock.maxcores
0x00000000 g   *ABS*      0x00000000 __free_libc_hwlock.maxtimers
0x00000000 g   *ABS*      0x00000000 __free_libc_hwlock.maxchanends
0x00000000 g   *ABS*      0x00000000 __lock_simple_init.nstackwords
0x00000001 g   *ABS*      0x00000000 __lock_simple_init.maxcores
0x00000000 g   *ABS*      0x00000000 __lock_simple_init.maxtimers
0x00000000 g   *ABS*      0x00000000 __lock_simple_init.maxchanends
0x00000000 g   *ABS*      0x00000000 __lock_simple_close.nstackwords
0x00000001 g   *ABS*      0x00000000 __lock_simple_close.maxcores
0x00000000 g   *ABS*      0x00000000 __lock_simple_close.maxtimers
0x00000000 g   *ABS*      0x00000000 __lock_simple_close.maxchanends
0x00000000 g   *ABS*      0x00000000 __lock_simple_acquire.nstackwords
0x00000001 g   *ABS*      0x00000000 __lock_simple_acquire.maxcores
0x00000000 g   *ABS*      0x00000000 __lock_simple_acquire.maxtimers
0x00000000 g   *ABS*      0x00000000 __lock_simple_acquire.maxchanends
0x00000000 g   *ABS*      0x00000000 __lock_simple_try_acquire.nstackwords
0x00000001 g   *ABS*      0x00000000 __lock_simple_try_acquire.maxcores
0x00000000 g   *ABS*      0x00000000 __lock_simple_try_acquire.maxtimers
0x00000000 g   *ABS*      0x00000000 __lock_simple_try_acquire.maxchanends
0x00000000 g   *ABS*      0x00000000 __lock_simple_release.nstackwords
0x00000001 g   *ABS*      0x00000000 __lock_simple_release.maxcores
0x00000000 g   *ABS*      0x00000000 __lock_simple_release.maxtimers
0x00000000 g   *ABS*      0x00000000 __lock_simple_release.maxchanends
0x00000000 g   *ABS*      0x00000000 __lock_fair_init.nstackwords
0x00000001 g   *ABS*      0x00000000 __lock_fair_init.maxcores
0x00000000 g   *ABS*      0x00000000 __lock_fair_init.maxtimers
0x00000000 g   *ABS*      0x00000000 __lock_fair_init.maxchanends
0x00000000 g   *ABS*      0x00000000 __lock_fair_close.nstackwords
0x00000001 g   *ABS*      0x00000000 __lock_fair_close.maxcores
0x00000000 g   *ABS*      0x00000000 __lock_fair_close.maxtimers
0x00000000 g   *ABS*      0x00000000 __lock_fair_close.maxchanends
0x00080d4c g f .text      0x00000020 __lock_fair_acquire
0x00000000 g   *ABS*      0x00000000 __lock_fair_acquire.nstackwords
0x00000001 g   *ABS*      0x00000000 __lock_fair_acquire.maxcores
0x00000000 g   *ABS*      0x00000000 __lock_fair_acquire.maxtimers
0x00000000 g   *ABS*      0x00000000 __lock_fair_acquire.maxchanends
0x00080d6c g f .text      0x0000000c __lock_fair_release
0x00000000 g   *ABS*      0x00000000 __lock_fair_release.nstackwords
0x00000001 g   *ABS*      0x00000000 __lock_fair_release.maxcores
0x00000000 g   *ABS*      0x00000000 __lock_fair_release.maxtimers
0x00000000 g   *ABS*      0x00000000 __lock_fair_release.maxchanends
0x00000000 g   *ABS*      0x00000000 __lock_recursive_init.nstackwords
0x00000001 g   *ABS*      0x00000000 __lock_recursive_init.maxcores
0x00000000 g   *ABS*      0x00000000 __lock_recursive_init.maxtimers
0x00000000 g   *ABS*      0x00000000 __lock_recursive_init.maxchanends
0x00000000 g   *ABS*      0x00000000 __lock_recursive_close.nstackwords
0x00000001 g   *ABS*      0x00000000 __lock_recursive_close.maxcores
0x00000000 g   *ABS*      0x00000000 __lock_recursive_close.maxtimers
0x00000000 g   *ABS*      0x00000000 __lock_recursive_close.maxchanends
0x00000000 g   *ABS*      0x00000000 __lock_recursive_acquire.nstackwords
0x00000001 g   *ABS*      0x00000000 __lock_recursive_acquire.maxcores
0x00000000 g   *ABS*      0x00000000 __lock_recursive_acquire.maxtimers
0x00000000 g   *ABS*      0x00000000 __lock_recursive_acquire.maxchanends
0x00000000 g   *ABS*      0x00000000 __lock_recursive_try_acquire.nstackwords
0x00000001 g   *ABS*      0x00000000 __lock_recursive_try_acquire.maxcores
0x00000000 g   *ABS*      0x00000000 __lock_recursive_try_acquire.maxtimers
0x00000000 g   *ABS*      0x00000000 __lock_recursive_try_acquire.maxchanends
0x00000000 g   *ABS*      0x00000000 __lock_recursive_release.nstackwords
0x00000001 g   *ABS*      0x00000000 __lock_recursive_release.maxcores
0x00000000 g   *ABS*      0x00000000 __lock_recursive_release.maxtimers
0x00000000 g   *ABS*      0x00000000 __lock_recursive_release.maxchanends
0x000813c0 l   .dp.bss.4  0x00000000 .dp.bss.4
0x000813c0 g O .dp.bss.4  0x00000004 __libc_hwlock
0x000000b0 l   .trap_info 0x00000000 .trap_info
0x00080d40 l   .text      0x00000000 $s.54
0x00080d4c l   .text      0x00000000 $s.63
0x00080d6c l   .text      0x00000000 $s.65
0x00000000 l F *ABS*      0x00000000 xscope_shared_s.s
0x00081320 l   .dp.data   0x00000000 .dp.data
0x00000000 l F *ABS*      0x00000000 syscallerrno.S
0x00000000 g   *ABS*      0x00000000 __errno.nstackwords
0x00000000 g   *ABS*      0x00000000 __errno.maxchanends
0x00000000 g   *ABS*      0x00000000 __errno.maxtimers
0x00000001 g   *ABS*      0x00000000 __errno.maxcores
0x00080fec g f .text      0x00000010 __errno
0x00080d78 l   .text      0x00000000 $s.8
0x00000000 l F *ABS*      0x00000000 xscope_constructor.S
0x00081324 l   .dp.data   0x00000000 .dp.data
0x000812f8 l   .ctors     0x00000000 .ctors
0x00000000 l F *ABS*      0x00000000 xscope_shared_xc.xc
0x00000000 l   *ABS*      0x00000000 usage.anon.0
0x00000000 l   *ABS*      0x00000000 usage.anon.1
0x00000000 l   *ABS*      0x00000000 usage.anon.2
0x00081348 g O .dp.data.4 0x00000004 xscope_ref_clk
0x00000000 l   *ABS*      0x00000000 xscope_gettime.locnoside
0x00000000 l   *ABS*      0x00000000 xscope_gettime_local_timer.locnoside
0x00000000 l   *ABS*      0x00000000 xscope_wait.locnoside
0x00000000 l   *ABS*      0x00000000 xscope_data_from_host.locnoside
0x00000000 l   *ABS*      0x00000000 xscope_connect_data_from_host.locnoside
0x00000000 l   *ABS*      0x00000000 xscope_gettime.locnoglobalaccess
0x00000000 l   *ABS*      0x00000000 xscope_start_ref_clock.locnoglobalaccess
0x00000000 l   *ABS*      0x00000000 xscope_stop_ref_clock.locnoglobalaccess
0x000077bc l   .debug_info 0x00000000 .debug_info
0x00000ba7 l   .debug_abbrev 0x00000000 .debug_abbrev
0x000019e4 l   .debug_line 0x00000000 .debug_line
0x00000668 l   .debug_str 0x00000000 .debug_str
0x00001821 l   .debug_loc 0x00000000 .debug_loc
0x00001720 l   .debug_ranges 0x00000000 .debug_ranges
0x00000004 g   *ABS*      0x00000000 xscope_data_from_host.nstackwords
0x00000001 g   *ABS*      0x00000000 xscope_data_from_host.maxcores
0x00000000 g   *ABS*      0x00000000 xscope_data_from_host.maxtimers
0x00000000 g   *ABS*      0x00000000 xscope_data_from_host.maxchanends
0x00000004 g   *ABS*      0x00000000 xscope_connect_data_from_host.nstackwords
0x00000001 g   *ABS*      0x00000000 xscope_connect_data_from_host.maxcores
0x00000000 g   *ABS*      0x00000000 xscope_connect_data_from_host.maxtimers
0x00000000 g   *ABS*      0x00000000 xscope_connect_data_from_host.maxchanends
0x00000000 l   *ABS*      0x00000000 xscope_tmr.ctor.nstackwords
0x00000001 l   *ABS*      0x00000000 xscope_tmr.ctor.maxcores
0x00000000 l   *ABS*      0x00000000 xscope_tmr.ctor.maxchanends
0x00000000 l   *ABS*      0x00000000 xscope_tmr.dtor.nstackwords
0x00000001 l   *ABS*      0x00000000 xscope_tmr.dtor.maxcores
0x00000000 l   *ABS*      0x00000000 xscope_tmr.dtor.maxchanends
0x00000001 g   *ABS*      0x00000000 xscope_gettime.maxcores
0x00000000 g   *ABS*      0x00000000 xscope_gettime.maxtimers
0x00000000 g   *ABS*      0x00000000 xscope_gettime.maxchanends
0x00000001 g   *ABS*      0x00000000 xscope_gettime_local_timer.maxcores
0x00000000 g   *ABS*      0x00000000 xscope_gettime_local_timer.maxtimers
0x00000000 g   *ABS*      0x00000000 xscope_gettime_local_timer.maxchanends
0x00000001 g   *ABS*      0x00000000 xscope_start_ref_clock.maxcores
0x00000000 g   *ABS*      0x00000000 xscope_start_ref_clock.maxtimers
0x00000000 g   *ABS*      0x00000000 xscope_start_ref_clock.maxchanends
0x00000001 g   *ABS*      0x00000000 xscope_stop_ref_clock.maxcores
0x00000000 g   *ABS*      0x00000000 xscope_stop_ref_clock.maxtimers
0x00000000 g   *ABS*      0x00000000 xscope_stop_ref_clock.maxchanends
0x000813c4 l   .dp.bss.4  0x00000000 .dp.bss.4
0x00081348 l   .dp.data.4 0x00000000 .dp.data.4
0x000812fc l   .ctors     0x00000000 .ctors
0x000812fc l   .dtors     0x00000000 .dtors
0x00000131 l   .xtacalltable 0x00000000 .xtacalltable
0x00000084 l   .xtaendpointtable 0x00000000 .xtaendpointtable
0x000000a1 l   .xtalabeltable 0x00000000 .xtalabeltable
0x00000062 l   .xtalooplabeltable 0x00000000 .xtalooplabeltable
0x000000b8 l   .trap_info 0x00000000 .trap_info
0x0000003c l   .trap_info_str 0x00000000 .trap_info_str
0x00080d98 l   .text      0x00000000 $d.211
0x00080da0 l   .text      0x00000000 $d.212
0x00080da8 l   .text      0x00000000 $d.213
0x00080dc4 l   .text      0x00000000 $d.214
0x00080de0 l   .text      0x00000000 $d.215
0x00000000 l F *ABS*      0x00000000 xscope_api_xlink_tx.c
0x00000002 g   *ABS*      0x00000000 xscope_xlink_put_char.nstackwords
0x00000000 g   *ABS*      0x00000000 xscope_xlink_put_ch.nstackwords
0x00000001 g   *ABS*      0x00000000 xscope_xlink_put_char.maxcores
0x00000001 g   *ABS*      0x00000000 xscope_xlink_put_ch.maxcores
0x00000000 g   *ABS*      0x00000000 xscope_xlink_put_char.maxtimers
0x00000000 g   *ABS*      0x00000000 xscope_xlink_put_ch.maxtimers
0x00000000 g   *ABS*      0x00000000 xscope_xlink_put_char.maxchanends
0x00000000 g   *ABS*      0x00000000 xscope_xlink_put_ch.maxchanends
0x00000004 g   *ABS*      0x00000000 xscope_xlink_put_short.nstackwords
0x00000001 g   *ABS*      0x00000000 xscope_xlink_put_short.maxcores
0x00000000 g   *ABS*      0x00000000 xscope_xlink_put_short.maxtimers
0x00000000 g   *ABS*      0x00000000 xscope_xlink_put_short.maxchanends
0x00000004 g   *ABS*      0x00000000 xscope_xlink_put_int.nstackwords
0x00000001 g   *ABS*      0x00000000 xscope_xlink_put_int.maxcores
0x00000000 g   *ABS*      0x00000000 xscope_xlink_put_int.maxtimers
0x00000000 g   *ABS*      0x00000000 xscope_xlink_put_int.maxchanends
0x00000004 g   *ABS*      0x00000000 xscope_tx_short.nstackwords
0x00000001 g   *ABS*      0x00000000 xscope_tx_short.maxcores
0x00000000 g   *ABS*      0x00000000 xscope_tx_short.maxtimers
0x00000000 g   *ABS*      0x00000000 xscope_tx_short.maxchanends
0x00000000 g   *ABS*      0x00000000 xscope_xlink_put_ct.nstackwords
0x00000001 g   *ABS*      0x00000000 xscope_xlink_put_ct.maxcores
0x00000000 g   *ABS*      0x00000000 xscope_xlink_put_ct.maxtimers
0x00000000 g   *ABS*      0x00000000 xscope_xlink_put_ct.maxchanends
0x00000000 g   *ABS*      0x00000000 xscope_xlink_init.nstackwords
0x00000000 g   *ABS*      0x00000000 xscope_xlink_start_token.nstackwords
0x00000001 g   *ABS*      0x00000000 xscope_xlink_init.maxcores
0x00000000 g   *ABS*      0x00000000 xscope_xlink_start_token.maxcores
0x00000000 g   *ABS*      0x00000000 xscope_xlink_init.maxtimers
0x00000000 g   *ABS*      0x00000000 xscope_xlink_start_token.maxtimers
0x00000000 g   *ABS*      0x00000000 xscope_xlink_init.maxchanends
0x00000000 g   *ABS*      0x00000000 xscope_xlink_start_token.maxchanends
0x00000000 g   *ABS*      0x00000000 xscope_xlink_deinit.nstackwords
0x00000001 g   *ABS*      0x00000000 xscope_xlink_deinit.maxcores
0x00000000 g   *ABS*      0x00000000 xscope_xlink_deinit.maxtimers
0x00000000 g   *ABS*      0x00000000 xscope_xlink_deinit.maxchanends
0x00080ffc g   .text      0x00000022 xscope_xlink_put_ch
0x00081050 g   .text      0x00000014 xscope_xlink_put_ct
0x00081020 g   .text      0x00000016 xscope_xlink_init
0x00081064 g   .text      0x0000001c xscope_xlink_start_token
0x00081038 g   .text      0x00000016 xscope_xlink_deinit
0x000000c0 l   .trap_info 0x00000000 .trap_info
0x00080dfc l   .text      0x00000000 $d.71
0x00080e08 l   .text      0x00000000 $d.73
0x00080e40 l   .text      0x00000000 $d.74
0x00080e4c l   .text      0x00000000 $d.75
0x00080e5c l   .text      0x00000000 $d.76
0x00000000 l F *ABS*      0x00000000 misaligned_load.S
0x00000001 g   *ABS*      0x00000000 __misaligned_load.maxcores
0x00000000 g   *ABS*      0x00000000 __misaligned_load.maxtimers
0x00000000 g   *ABS*      0x00000000 __misaligned_load.maxchanends
0x00000000 g   *ABS*      0x00000000 __misaligned_volatile_load.nstackwords
0x00000001 g   *ABS*      0x00000000 __misaligned_volatile_load.maxcores
0x00000000 g   *ABS*      0x00000000 __misaligned_volatile_load.maxtimers
0x00000000 g   *ABS*      0x00000000 __misaligned_volatile_load.maxchanends
0x00000000 l F *ABS*      0x00000000 xscope_probe_xlink.S
0x00000000 g   *ABS*      0x00000000 xscope_ping.nstackwords
0x00000001 g   *ABS*      0x00000000 xscope_ping.maxcores
0x00000000 g   *ABS*      0x00000000 xscope_ping.maxtimers
0x00000000 g   *ABS*      0x00000000 xscope_ping.maxchanends
0x00000000 l   *ABS*      0x00000000 xscope_ping.locnoside
0x00000001 l   *ABS*      0x00000000 xscope_ping.locnochandec
0x00000001 l   *ABS*      0x00000000 xscope_ping.locnoglobalaccess
0x00000001 l   *ABS*      0x00000000 xscope_ping.locnointerfaceaccess
0x00000001 l   *ABS*      0x00000000 xscope_ping.locnonotificationselect
0x00000000 g   *ABS*      0x00000000 xscope_char.nstackwords
0x00000001 g   *ABS*      0x00000000 xscope_char.maxcores
0x00000000 g   *ABS*      0x00000000 xscope_char.maxtimers
0x00000000 g   *ABS*      0x00000000 xscope_char.maxchanends
0x00000000 l   *ABS*      0x00000000 xscope_char.locnoside
0x00000001 l   *ABS*      0x00000000 xscope_char.locnochandec
0x00000001 l   *ABS*      0x00000000 xscope_char.locnoglobalaccess
0x00000001 l   *ABS*      0x00000000 xscope_char.locnointerfaceaccess
0x00000001 l   *ABS*      0x00000000 xscope_char.locnonotificationselect
0x00000000 g   *ABS*      0x00000000 xscope_short.nstackwords
0x00000001 g   *ABS*      0x00000000 xscope_short.maxcores
0x00000000 g   *ABS*      0x00000000 xscope_short.maxtimers
0x00000000 g   *ABS*      0x00000000 xscope_short.maxchanends
0x00000000 l   *ABS*      0x00000000 xscope_short.locnoside
0x00000001 l   *ABS*      0x00000000 xscope_short.locnochandec
0x00000001 l   *ABS*      0x00000000 xscope_short.locnoglobalaccess
0x00000001 l   *ABS*      0x00000000 xscope_short.locnointerfaceaccess
0x00000001 l   *ABS*      0x00000000 xscope_short.locnonotificationselect
0x00000000 l   *ABS*      0x00000000 xscope_int.locnoside
0x00000001 l   *ABS*      0x00000000 xscope_int.locnochandec
0x00000001 l   *ABS*      0x00000000 xscope_int.locnoglobalaccess
0x00000001 l   *ABS*      0x00000000 xscope_int.locnointerfaceaccess
0x00000001 l   *ABS*      0x00000000 xscope_int.locnonotificationselect
0x00000000 l   *ABS*      0x00000000 xscope_longlong.locnoside
0x00000001 l   *ABS*      0x00000000 xscope_longlong.locnochandec
0x00000001 l   *ABS*      0x00000000 xscope_longlong.locnoglobalaccess
0x00000001 l   *ABS*      0x00000000 xscope_longlong.locnointerfaceaccess
0x00000001 l   *ABS*      0x00000000 xscope_longlong.locnonotificationselect
0x00000000 l   *ABS*      0x00000000 xscope_start_int.locnoside
0x00000001 l   *ABS*      0x00000000 xscope_start_int.locnochandec
0x00000001 l   *ABS*      0x00000000 xscope_start_int.locnoglobalaccess
0x00000001 l   *ABS*      0x00000000 xscope_start_int.locnointerfaceaccess
0x00000001 l   *ABS*      0x00000000 xscope_start_int.locnonotificationselect
0x00000000 l   *ABS*      0x00000000 xscope_stop_int.locnoside
0x00000001 l   *ABS*      0x00000000 xscope_stop_int.locnochandec
0x00000001 l   *ABS*      0x00000000 xscope_stop_int.locnoglobalaccess
0x00000001 l   *ABS*      0x00000000 xscope_stop_int.locnointerfaceaccess
0x00000001 l   *ABS*      0x00000000 xscope_stop_int.locnonotificationselect
0x0008132c g   .dp.data   0x00000000 __sodEnd
0x00000000 l F *ABS*      0x00000000 xscope_probe_core_xlink.S
0x00000001 g   *ABS*      0x00000000 xscope_core_char.nstackwords
0x00000001 g   *ABS*      0x00000000 xscope_core_char.maxcores
0x00000000 g   *ABS*      0x00000000 xscope_core_char.maxtimers
0x00000000 g   *ABS*      0x00000000 xscope_core_char.maxchanends
0x00000000 l   *ABS*      0x00000000 xscope_core_char.locnoside
0x00000001 l   *ABS*      0x00000000 xscope_core_char.locnochandec
0x00000001 l   *ABS*      0x00000000 xscope_core_char.locnoglobalaccess
0x00000001 l   *ABS*      0x00000000 xscope_core_char.locnointerfaceaccess
0x00000001 l   *ABS*      0x00000000 xscope_core_char.locnonotificationselect
0x00000001 g   *ABS*      0x00000000 xscope_core_short.nstackwords
0x00000001 g   *ABS*      0x00000000 xscope_core_short.maxcores
0x00000000 g   *ABS*      0x00000000 xscope_core_short.maxtimers
0x00000000 g   *ABS*      0x00000000 xscope_core_short.maxchanends
0x00000000 l   *ABS*      0x00000000 xscope_core_short.locnoside
0x00000001 l   *ABS*      0x00000000 xscope_core_short.locnochandec
0x00000001 l   *ABS*      0x00000000 xscope_core_short.locnoglobalaccess
0x00000001 l   *ABS*      0x00000000 xscope_core_short.locnointerfaceaccess
0x00000001 l   *ABS*      0x00000000 xscope_core_short.locnonotificationselect
0x00000000 l   *ABS*      0x00000000 xscope_core_int.locnoside
0x00000001 l   *ABS*      0x00000000 xscope_core_int.locnochandec
0x00000001 l   *ABS*      0x00000000 xscope_core_int.locnoglobalaccess
0x00000001 l   *ABS*      0x00000000 xscope_core_int.locnointerfaceaccess
0x00000001 l   *ABS*      0x00000000 xscope_core_int.locnonotificationselect
0x00000000 l   *ABS*      0x00000000 xscope_core_longlong.locnoside
0x00000001 l   *ABS*      0x00000000 xscope_core_longlong.locnochandec
0x00000001 l   *ABS*      0x00000000 xscope_core_longlong.locnoglobalaccess
0x00000001 l   *ABS*      0x00000000 xscope_core_longlong.locnointerfaceaccess
0x00000001 l   *ABS*      0x00000000 xscope_core_longlong.locnonotificationselect
0x00000000 l   *ABS*      0x00000000 xscope_core_start_int.locnoside
0x00000001 l   *ABS*      0x00000000 xscope_core_start_int.locnochandec
0x00000001 l   *ABS*      0x00000000 xscope_core_start_int.locnoglobalaccess
0x00000001 l   *ABS*      0x00000000 xscope_core_start_int.locnointerfaceaccess
0x00000001 l   *ABS*      0x00000000 xscope_core_start_int.locnonotificationselect
0x00000000 l   *ABS*      0x00000000 xscope_core_stop_int.locnoside
0x00000001 l   *ABS*      0x00000000 xscope_core_stop_int.locnochandec
0x00000001 l   *ABS*      0x00000000 xscope_core_stop_int.locnoglobalaccess
0x00000001 l   *ABS*      0x00000000 xscope_core_stop_int.locnointerfaceaccess
0x00000001 l   *ABS*      0x00000000 xscope_core_stop_int.locnonotificationselect
0x00000000 l F *ABS*      0x00000000 __start_core.s
0x00080e68 l   .text      0x00000000 $s.12
0x00000000 l F *ABS*      0x00000000 __atexit.c
0x00000000 l   *ABS*      0x00000000 _fptrgroup.stdlib_atexit.nstackwords
0x00000001 l   *ABS*      0x00000000 _fptrgroup.stdlib_atexit.maxcores
0x00000000 l   *ABS*      0x00000000 _fptrgroup.stdlib_atexit.maxtimers
0x00000000 l   *ABS*      0x00000000 _fptrgroup.stdlib_atexit.maxchanends
0x00000000 g   *ABS*      0x00000000 __checkFptrGroup.nstackwords
0x000813c4 l   .dp.bss.4  0x00000000 .dp.bss.4
0x000813c4 l O .dp.bss.4  0x00000190 _atexit_fns0
0x0008134c l   .dp.data.4 0x00000000 .dp.data.4
0x0008134c g O .dp.data.4 0x00000004 _atexit_fns
0x00081554 l O .dp.bss.4  0x00000008 __register_exitproc.lock
0x000000c8 l   .trap_info 0x00000000 .trap_info
0x000811d4 g   .cp.rodata.4 0x00000000 _fptrgroup.stdlib_atexit.group.begin
0x000811e0 g   .cp.rodata.4 0x00000000 _fptrgroup.stdlib_atexit.group.end
0x00081080 g f .text      0x00000016 __checkFptrGroup
0x00080e80 l   .text      0x00000000 $s.26
0x00080f20 l   .text      0x00000000 $s.27
0x00000000 l F *ABS*      0x00000000 udivmoddi4.c
0x00081210 l   .cp.rodata.cst4 0x00000000 .cp.rodata.cst4
0x000000d0 l   .trap_info 0x00000000 .trap_info
0x00000000 l F *ABS*      0x00000000 errno.c
0x0008155c l   .dp.bss.4  0x00000000 .dp.bss.4
0x0008155c l O .dp.bss.4  0x00000020 _errno
0x000000d8 l   .trap_info 0x00000000 .trap_info
0x00080fec l   .text      0x00000000 $s.6
0x00000000 l F *ABS*      0x00000000 xscope_tx_xlink.S
0x0008101a l   .text      0x00000000 xscope_xlink_outt
0x0008101c l   .text      0x00000000 xscope_xlink_put_ch_ret
0x00081062 l   .text      0x00000000 xscope_xlink_put_ct_ret
0x0008107e l   .text      0x00000000 xscope_xlink_start_token_ret
0x00000000 g   *ABS*      0x00000000 xscope_xlink_close.nstackwords
0x00000000 g   *ABS*      0x00000000 xscope_xlink_close.maxtimers
0x00000000 g   *ABS*      0x00000000 xscope_xlink_close.maxchanends
0x00000001 g   *ABS*      0x00000000 xscope_xlink_close.maxcores
0x00000000 g   *ABS*      0x00000000 xscope_mode_lossy.nstackwords
0x00000000 g   *ABS*      0x00000000 xscope_mode_lossy.maxtimers
0x00000000 g   *ABS*      0x00000000 xscope_mode_lossy.maxchanends
0x00000001 g   *ABS*      0x00000000 xscope_mode_lossy.maxcores
0x00000000 g   *ABS*      0x00000000 xscope_mode_lossless.nstackwords
0x00000000 g   *ABS*      0x00000000 xscope_mode_lossless.maxtimers
0x00000000 g   *ABS*      0x00000000 xscope_mode_lossless.maxchanends
0x00000001 g   *ABS*      0x00000000 xscope_mode_lossless.maxcores
0x00080ffc l   .text      0x00000000 $s.32
0x00081020 l   .text      0x00000000 $s.33
0x00081038 l   .text      0x00000000 $s.34
0x00081050 l   .text      0x00000000 $s.35
0x00081064 l   .text      0x00000000 $s.36
0x00000000 l F *ABS*      0x00000000 __checkFptrGroup.S
0x00000001 g   *ABS*      0x00000000 __checkFptrGroup.maxcores
0x00000000 g   *ABS*      0x00000000 __checkFptrGroup.maxtimers
0x00000000 g   *ABS*      0x00000000 __checkFptrGroup.maxchanends
0x00081080 l   .text      0x00000000 $s.4
0x00000000 g   *ABS*      0x00000000 __main_default_network
0x00000002 g   *ABS*      0x00000000 tile.globound
0x00000000 l F *ABS*      0x00000000 crtend.S
0x000811ec l   .cp.const4 0x00000000 .cp.const4
0x000811ec l   .cp.const4 0x00000000 ctor_list_ptr
0x00081208 l   .cp.const4 0x00000000 ctors_size
0x000812fc g   .ctors     0x00000000 _CTOR_END_
0x000800ce l   .init      0x00000000 .init
0x000800dc l   .init      0x00000000 do_ctors_loop
0x000800e4 l   .init      0x00000000 do_ctors_end
0x000800ce l   .init      0x00000000 $s.5
0x00000000 l F *ABS*      0x00000000 crtn.S
0x000800e4 l   .init      0x00000000 .init
0x00080112 l   .fini      0x00000000 .fini
0x000800e4 l   .init      0x00000000 $s.4
0x00080112 l   .fini      0x00000000 $s.5
0x00000000 l F *ABS*      0x00000000 _sod.xcHpbazv
0x00081328 l   .dp.data   0x00000000 .dp.data
0x000812fc g   .bss       0x00000000 _ebss

Disassembly of section .crt (size: 204)

<.crt>:
<_start>:
             0x00080000: 4b 68:       ldc (ru6)       r1, 0xb
             0x00080002: 40 77:       entsp (u6)      0x0
             0x00080004: d1 fe ec 17: get (l2r)       r0, ps[r1]
             0x00080008: 04 f0 8b 68: ldc (lru6)      r2, 0x10b
             0x0008000c: c2 fe ec 1f: set (lr2r)      ps[r2], r0
             0x00080010: c3 86:       getr (rus)      r0, 0x3
             0x00080012: 4b d8:       ldap (u10)      r11, 0x4b <_InitChildThread>
             0x00080014: 02 73:       bu (u6)         0x2 <.label0>
.label1      0x00080016: 5d ff ec 07: init (l2r)      t[r1]:pc, r11
.label0      0x0008001a: d4 06:       getst (2r)      r1, res[r0]
             0x0008001c: 44 74:       bt (ru6)        r1, -0x4 <.label1>
             0x0008001e: f0 1f:       msync (1r)      res[r0]
             0x00080020: 46 d0:       bl (u10)        0x46 <_SetupThread>
             0x00080022: 01 f0 8d 6f: ldw (lru6)      sp, cp[0x4d]
             0x00080026: f0 17:       mjoin (1r)      res[r0]
             0x00080028: e0 17:       freer (1r)      res[r0]
             0x0008002a: 08 f0 0b 68: ldc (lru6)      r0, 0x20b
             0x0008002e: 00 f0 55 58: ldw (lru6)      r1, dp[0x15]
             0x00080032: c4 fe ec 1f: set (lr2r)      ps[r0], r1
             0x00080036: 00 f0 16 60: ldaw (lru6)     r0, dp[0x16]
             0x0008003a: 40 68:       ldc (ru6)       r1, 0x0
             0x0008003c: 01 f0 8e 6c: ldw (lru6)      r2, cp[0x4e]
             0x00080040: 01 f0 d6 d0: bl (lu10)       0x4d6 <.label2>
             0x00080044: 01 f0 09 6c: ldw (lru6)      r0, cp[0x49]
             0x00080048: 40 68:       ldc (ru6)       r1, 0x0
             0x0008004a: 01 f0 8f 6c: ldw (lru6)      r2, cp[0x4f]
             0x0008004e: 01 f0 cf d0: bl (lu10)       0x4cf <.label2>
             0x00080052: 01 f0 0a 6c: ldw (lru6)      r0, cp[0x4a]
             0x00080056: 40 68:       ldc (ru6)       r1, 0x0
             0x00080058: 01 f0 90 6c: ldw (lru6)      r2, cp[0x50]
             0x0008005c: 01 f0 c8 d0: bl (lu10)       0x4c8 <.label2>
             0x00080060: 01 f0 ca d0: bl (lu10)       0x4ca <.label3>
             0x00080064: 00 f0 32 d0: bl (lu10)       0x32 <.label4>
             0x00080068: 00 f0 c6 6a: ldc (lru6)      r11, 0x6
             0x0008006c: c8 ea:       setc (ru6)      res[r11], 0x8
             0x0008006e: cf ea:       setc (ru6)      res[r11], 0xf
             0x00080070: 00 68:       ldc (ru6)       r0, 0x0
             0x00080072: 01 54:       stw (ru6)       r0, sp[0x1]
             0x00080074: 00 f0 40 68: ldc (lru6)      r1, 0x0
             0x00080078: 07 73:       bu (u6)         0x7 <_startExit>
             0x0008007a: ff 17:       nop (0r)        
             0x0008007c: ff 17:       nop (0r)        
             0x0008007e: ff 17:       nop (0r)        

<_TrapHandler>:
             0x00080080: 00 f0 40 77: entsp (lu6)     0x0
             0x00080084: 00 f0 1e 73: bu (lu6)        0x1e <_DoException> <.crt>

<_startExit>:
             0x00080088: 48 78:       bf (ru6)        r1, 0x8 <.label5>
             0x0008008a: 01 64:       ldaw (ru6)      r0, sp[0x1]
             0x0008008c: 01 f0 8e d0: bl (lu10)       0x48e <.label6>
             0x00080090: b0 f8 ec 97: ashr (l2rus)    r11, r0, 0x20
             0x00080094: c2 7a:       bf (ru6)        r11, 0x2 <.label5>
             0x00080096: 01 90:       add (2rus)      r0, r0, 0x1
             0x00080098: f0 4f:       ecallt (1r)     r0
.label5      0x0008009a: 41 64:       ldaw (ru6)      r1, sp[0x1]
             0x0008009c: 01 f0 41 d0: bl (lu10)       0x441 <.label7>
             0x000800a0: 02 70:       bt (ru6)        r0, 0x2 <.label8>
             0x000800a2: 01 f0 8b d0: bl (lu10)       0x48b <.label9>
.label8      0x000800a6: 01 f0 95 d0: bl (lu10)       0x495 <.label10>

<_InitChildThread>:
             0x000800aa: 01 d0:       bl (u10)        0x1 <_SetupThread>
             0x000800ac: ee 07:       ssync (0r)      

<_SetupThread>:
             0x000800ae: 18 dc:       ldap (u10)      r11, -0x18 <_TrapHandler>
             0x000800b0: ff 07:       set (0r)        kep, r11
             0x000800b2: 02 f0 05 d8: ldap (lu10)     r11, 0x805 <.label11>
             0x000800b6: fb 37:       set (1r)        cp, r11
             0x000800b8: 01 f0 48 6f: ldw (lru6)      dp, cp[0x48]
             0x000800bc: c0 6a:       ldc (ru6)       r11, 0x0
             0x000800be: fb 2f:       set (1r)        sp, r11
             0x000800c0: c0 77:       retsp (u6)      0x0

<__register_frame_info_bases>:
             0x000800c2: c0 77:       retsp (u6)      0x0

<_DoException>:
<.crt>:
             0x000800c4: 00 f0 40 77: entsp (lu6)     0x0
             0x000800c8: ed 07:       clre (0r)       
             0x000800ca: ec 07:       waiteu (0r)     

Disassembly of section .init (size: 26)

<_init>:
<.init>:
.label4      0x000800cc: 42 77:       entsp (u6)      0x2

<.init>:
             0x000800ce: 01 f0 37 d2: bl (lu10)       0x637 <.label12>
             0x000800d2: 01 f0 12 6d: ldw (lru6)      r4, cp[0x52]
             0x000800d6: 06 79:       bf (ru6)        r4, 0x6 <do_ctors_end> <.init>
             0x000800d8: 01 f0 4b 6d: ldw (lru6)      r5, cp[0x4b]

<do_ctors_loop>:
             0x000800dc: 01 99:       sub (2rus)      r4, r4, 0x1
             0x000800de: 04 4b:       ldw (3r)        r0, r5[r4]
             0x000800e0: e0 27:       bla (1r)        r0
             0x000800e2: 04 75:       bt (ru6)        r4, -0x4 <do_ctors_loop>

<do_ctors_end>:
<.init>:
             0x000800e4: c2 77:       retsp (u6)      0x2

Disassembly of section .fini (size: 46)

<.fini>:
<_fini>:
.label72     0x000800e6: 42 77:       entsp (u6)      0x2

<.fini>:
             0x000800e8: 84 77:       extsp (u6)      0x4
             0x000800ea: 01 55:       stw (ru6)       r4, sp[0x1]
             0x000800ec: 42 55:       stw (ru6)       r5, sp[0x2]
             0x000800ee: 83 55:       stw (ru6)       r6, sp[0x3]
             0x000800f0: 01 f0 91 6d: ldw (lru6)      r6, cp[0x51]
             0x000800f4: 88 79:       bf (ru6)        r6, 0x8 <do_dtors_end>
             0x000800f6: 00 69:       ldc (ru6)       r4, 0x0
             0x000800f8: 01 f0 4c 6d: ldw (lru6)      r5, cp[0x4c]

<do_dtors_loop>:
             0x000800fc: 04 4b:       ldw (3r)        r0, r5[r4]
             0x000800fe: e0 27:       bla (1r)        r0
             0x00080100: 01 91:       add (2rus)      r4, r4, 0x1
             0x00080102: b2 cb:       lsu (3r)        r11, r4, r6
             0x00080104: c5 76:       bt (ru6)        r11, -0x5 <do_dtors_loop>

<do_dtors_end>:
             0x00080106: 01 f0 81 d0: bl (lu10)       0x481 <.label13>
             0x0008010a: 01 5d:       ldw (ru6)       r4, sp[0x1]
             0x0008010c: 42 5d:       ldw (ru6)       r5, sp[0x2]
             0x0008010e: 83 5d:       ldw (ru6)       r6, sp[0x3]
             0x00080110: 84 67:       ldaw (ru6)      sp, sp[0x4]

<.fini>:
             0x00080112: c2 77:       retsp (u6)      0x2

Disassembly of section .text (size: 3970)

<_write>:
             0x00080114: ff 17:       nop (0r)        
             0x00080116: 86 7f:       dualentsp (u6)  0x6
             0x00080118: 05 f9 ec f7: std (l2rus)     r5, r4, sp[0x1]
             0x0008011c: 48 90:       add (2rus)      r4, r2, 0x0
             0x0008011e: 84 55:       stw (ru6)       r6, sp[0x4]
             0x00080120: 54 90:       add (2rus)      r5, r1, 0x0
             0x00080122: 60 90:       add (2rus)      r6, r0, 0x0
             0x00080124: 00 f0 4e d2: bl (lu10)       0x24e <xscope_get_io_config>
             0x00080128: 00 f0 04 78: bf (lru6)       r0, 0x4 <.label14>
             0x0008012c: 12 b0:       eq (2rus)       r1, r0, 0x2
             0x0008012e: ff 17:       nop (0r)        
             0x00080130: 00 f0 47 78: bf (lru6)       r1, 0x7 <.label15>
             0x00080134: 03 f0 13 68: ldc (lru6)      r0, 0xd3
             0x00080138: 00 f0 08 73: bu (lu6)        0x8 <.label16>
.label14     0x0008013c: c8 90:       add (2rus)      r0, r6, 0x0
             0x0008013e: d4 90:       add (2rus)      r1, r5, 0x0
             0x00080140: e0 90:       add (2rus)      r2, r4, 0x0
             0x00080142: ff 17:       nop (0r)        
             0x00080144: 00 f0 49 d2: bl (lu10)       0x249 <xscope_syscall_write>
             0x00080148: 40 90:       add (2rus)      r4, r0, 0x0
             0x0008014a: ff 17:       nop (0r)        
             0x0008014c: 00 f0 08 73: bu (lu6)        0x8 <.label17>
.label15     0x00080150: 01 b0:       eq (2rus)       r0, r0, 0x1
             0x00080152: ff 17:       nop (0r)        
             0x00080154: 00 f0 05 78: bf (lru6)       r0, 0x5 <.label18>
             0x00080158: 03 f0 12 68: ldc (lru6)      r0, 0xd2
.label16     0x0008015c: d8 90:       add (2rus)      r1, r6, 0x0
             0x0008015e: e0 90:       add (2rus)      r2, r4, 0x0
             0x00080160: f4 90:       add (2rus)      r3, r5, 0x0
             0x00080162: ff 17:       nop (0r)        
             0x00080164: 00 f0 7f d2: bl (lu10)       0x27f <xscope_syscall_data_write>
             0x00080168: 00 f0 01 73: bu (lu6)        0x1 <.label17>
.label18     0x0008016c: 10 a7:       mkmsk (rus)     r4, 0x20
             0x0008016e: ff 17:       nop (0r)        
.label17     0x00080170: c0 90:       add (2rus)      r0, r4, 0x0
             0x00080172: 84 5d:       ldw (ru6)       r6, sp[0x4]
             0x00080174: 05 f9 ec ef: ldd (l2rus)     r5, r4, sp[0x1]
             0x00080178: ff 17:       nop (0r)        
             0x0008017a: c6 77:       retsp (u6)      0x6

<__main__main_tile_0>:
             0x0008017c: 00 f0 42 77: entsp (lu6)     0x2
             0x00080180: 00 f0 4c 60: ldaw (lru6)     r1, dp[0xc]
             0x00080184: 00 68:       ldc (ru6)       r0, 0x0
             0x00080186: 01 f0 41 d1: bl (lu10)       0x541 <__start_other_cores>
             0x0008018a: c2 77:       retsp (u6)      0x2

<__main__main_tile_0_task_tile0_task1_0>:
             0x0008018c: 00 f0 42 77: entsp (lu6)     0x2
             0x00080190: 00 f0 e2 d1: bl (lu10)       0x1e2 <tile0_task1>
             0x00080194: c2 77:       retsp (u6)      0x2
             0x00080196: 00 00:       stw (2rus)      r0, r0[0x0]

<__main__main_tile_0_task_tile0_task2_1>:
             0x00080198: 00 f0 42 77: entsp (lu6)     0x2
             0x0008019c: 00 f0 e2 d1: bl (lu10)       0x1e2 <tile0_task2>
             0x000801a0: c2 77:       retsp (u6)      0x2
             0x000801a2: 00 00:       stw (2rus)      r0, r0[0x0]

<__dtor_PIN>:
             0x000801a4: 00 f0 40 77: entsp (lu6)     0x0
             0x000801a8: 00 f0 16 58: ldw (lru6)      r0, dp[0x16]
             0x000801ac: 01 78:       bf (ru6)        r0, 0x1 <.label19>
             0x000801ae: 00 e8:       setc (ru6)      res[r0], 0x0
.label19     0x000801b0: c0 77:       retsp (u6)      0x0
             0x000801b2: 00 00:       stw (2rus)      r0, r0[0x0]

<_ZN6XCPortC2EjNS_10PortMode_tEj>:
             0x000801b4: 00 f0 42 77: entsp (lu6)     0x2
             0x000801b8: 10 00:       stw (2rus)      r1, r0[0x0]
             0x000801ba: 48 e8:       setc (ru6)      res[r1], 0x8
             0x000801bc: 18 90:       add (2rus)      r1, r2, 0x0
             0x000801be: 2c 90:       add (2rus)      r2, r3, 0x0
             0x000801c0: 00 f0 f4 d1: bl (lu10)       0x1f4 <_ZN6XCPort7setModeENS_10PortMode_tEj>
             0x000801c4: c2 77:       retsp (u6)      0x2
             0x000801c6: 00 00:       stw (2rus)      r0, r0[0x0]

<__dtor_PLEDS>:
             0x000801c8: 00 f0 40 77: entsp (lu6)     0x0
             0x000801cc: 00 f0 18 58: ldw (lru6)      r0, dp[0x18]
             0x000801d0: 01 78:       bf (ru6)        r0, 0x1 <.label20>
             0x000801d2: 00 e8:       setc (ru6)      res[r0], 0x0
.label20     0x000801d4: c0 77:       retsp (u6)      0x0
             0x000801d6: 00 00:       stw (2rus)      r0, r0[0x0]

<_Z8testLedsv>:
             0x000801d8: 00 f0 6e 77: entsp (lu6)     0x2e
             0x000801dc: 26 55:       stw (ru6)       r4, sp[0x26]
             0x000801de: 67 55:       stw (ru6)       r5, sp[0x27]
             0x000801e0: a8 55:       stw (ru6)       r6, sp[0x28]
             0x000801e2: e9 55:       stw (ru6)       r7, sp[0x29]
             0x000801e4: 2a 56:       stw (ru6)       r8, sp[0x2a]
             0x000801e6: 6b 56:       stw (ru6)       r9, sp[0x2b]
             0x000801e8: ac 56:       stw (ru6)       r10, sp[0x2c]
             0x000801ea: e4 65:       ldaw (ru6)      r7, sp[0x24]
             0x000801ec: 01 f0 57 6c: ldw (lru6)      r1, cp[0x57]
             0x000801f0: 82 69:       ldc (ru6)       r6, 0x2
             0x000801f2: 00 69:       ldc (ru6)       r4, 0x0
             0x000801f4: cc 90:       add (2rus)      r0, r7, 0x0
             0x000801f6: e8 90:       add (2rus)      r2, r6, 0x0
             0x000801f8: f0 90:       add (2rus)      r3, r4, 0x0
             0x000801fa: 00 f0 25 d4: bl (lu10)       -0x25 <_ZN6XCPortC2EjNS_10PortMode_tEj>
             0x000801fe: e2 55:       stw (ru6)       r7, sp[0x22]
             0x00080200: 23 55:       stw (ru6)       r4, sp[0x23]
             0x00080202: 10 91:       add (2rus)      r5, r4, 0x0
             0x00080204: e0 55:       stw (ru6)       r7, sp[0x20]
             0x00080206: 59 a7:       mkmsk (rus)     r10, 0x1
             0x00080208: a1 56:       stw (ru6)       r10, sp[0x21]
             0x0008020a: de 55:       stw (ru6)       r7, sp[0x1e]
             0x0008020c: 9f 55:       stw (ru6)       r6, sp[0x1f]
             0x0008020e: dc 55:       stw (ru6)       r7, sp[0x1c]
             0x00080210: d2 a6:       mkmsk (rus)     r0, 0x2
             0x00080212: 1d 54:       stw (ru6)       r0, sp[0x1d]
             0x00080214: 01 f0 66 7f: ldaw (lu6)      r11, cp[0x66]
             0x00080218: 8c 91:       add (2rus)      r0, r11, 0x0
             0x0008021a: 00 f0 1b d2: bl (lu10)       0x21b <debug_printf>
             0x0008021e: 02 f0 45 7f: ldaw (lu6)      r11, cp[0x85]
             0x00080222: 48 68:       ldc (ru6)       r1, 0x8
             0x00080224: 8c 91:       add (2rus)      r0, r11, 0x0
             0x00080226: 00 f0 15 d2: bl (lu10)       0x215 <debug_printf>
             0x0008022a: 00 f0 27 d3: bl (lu10)       0x327 <_ZN2XC6microsEv> <XC_USE_TIMER_END> <XC_USE_CHANEND_END>
             0x0008022e: 1a 54:       stw (ru6)       r0, sp[0x1a]
             0x00080230: 5b 54:       stw (ru6)       r1, sp[0x1b]
             0x00080232: 1c 65:       ldaw (ru6)      r4, sp[0x1c]
             0x00080234: c8 90:       add (2rus)      r0, r6, 0x0
.label21     0x00080236: 09 54:       stw (ru6)       r0, sp[0x9]
             0x00080238: 25 5c:       ldw (ru6)       r0, sp[0x25]
             0x0008023a: 92 44:       or (3r)         r1, r0, r10
             0x0008023c: a4 5c:       ldw (ru6)       r2, sp[0x24]
             0x0008023e: c6 ae:       out (r2r)       res[r2], r1
             0x00080240: 45 68:       ldc (ru6)       r1, 0x5
             0x00080242: 01 40:       or (3r)         r0, r0, r1
             0x00080244: c2 ae:       out (r2r)       res[r2], r0
             0x00080246: 01 f0 5e 6c: ldw (lru6)      r1, cp[0x5e]
             0x0008024a: 01 38:       and (3r)        r0, r0, r1
             0x0008024c: 25 54:       stw (ru6)       r0, sp[0x25]
             0x0008024e: c2 ae:       out (r2r)       res[r2], r0
             0x00080250: a4 65:       ldaw (ru6)      r6, sp[0x24]
             0x00080252: 98 55:       stw (ru6)       r6, sp[0x18]
             0x00080254: 99 56:       stw (ru6)       r10, sp[0x19]
             0x00080256: 18 64:       ldaw (ru6)      r0, sp[0x18]
             0x00080258: 00 f0 18 d1: bl (lu10)       0x118 <_ZNK6XCPort8bitproxycvjEv>
             0x0008025c: 10 90:       add (2rus)      r1, r0, 0x0
             0x0008025e: c0 90:       add (2rus)      r0, r4, 0x0
             0x00080260: 00 f0 84 d1: bl (lu10)       0x184 <_ZN9XCPortBit3setEj>
             0x00080264: 96 55:       stw (ru6)       r6, sp[0x16]
             0x00080266: 57 55:       stw (ru6)       r5, sp[0x17]
             0x00080268: 16 64:       ldaw (ru6)      r0, sp[0x16]
             0x0008026a: 00 f0 0f d1: bl (lu10)       0x10f <_ZNK6XCPort8bitproxycvjEv>
             0x0008026e: 70 90:       add (2rus)      r7, r0, 0x0
             0x00080270: 94 55:       stw (ru6)       r6, sp[0x14]
             0x00080272: 95 56:       stw (ru6)       r10, sp[0x15]
             0x00080274: 14 64:       ldaw (ru6)      r0, sp[0x14]
             0x00080276: 00 f0 09 d1: bl (lu10)       0x109 <_ZNK6XCPort8bitproxycvjEv>
             0x0008027a: 80 90:       add (2rus)      r8, r0, 0x0
             0x0008027c: 92 55:       stw (ru6)       r6, sp[0x12]
             0x0008027e: 02 68:       ldc (ru6)       r0, 0x2
             0x00080280: 13 54:       stw (ru6)       r0, sp[0x13]
             0x00080282: 12 64:       ldaw (ru6)      r0, sp[0x12]
             0x00080284: 00 f0 02 d1: bl (lu10)       0x102 <_ZNK6XCPort8bitproxycvjEv>
             0x00080288: 90 90:       add (2rus)      r9, r0, 0x0
             0x0008028a: 90 55:       stw (ru6)       r6, sp[0x10]
             0x0008028c: 12 a7:       mkmsk (rus)     r4, 0x2
             0x0008028e: 11 55:       stw (ru6)       r4, sp[0x11]
             0x00080290: 10 64:       ldaw (ru6)      r0, sp[0x10]
             0x00080292: 00 f0 fb d0: bl (lu10)       0xfb <_ZNK6XCPort8bitproxycvjEv>
             0x00080296: 48 f0 74 68: ldc (lru6)      r1, 0x1234
             0x0008029a: 42 54:       stw (ru6)       r1, sp[0x2]
             0x0008029c: 01 54:       stw (ru6)       r0, sp[0x1]
             0x0008029e: 01 f0 7f 7f: ldaw (lu6)      r11, cp[0x7f]
             0x000802a2: 8c 91:       add (2rus)      r0, r11, 0x0
             0x000802a4: dc 90:       add (2rus)      r1, r7, 0x0
             0x000802a6: a0 91:       add (2rus)      r2, r8, 0x0
             0x000802a8: b4 91:       add (2rus)      r3, r9, 0x0
             0x000802aa: 00 f0 d3 d1: bl (lu10)       0x1d3 <debug_printf>
             0x000802ae: 1a 64:       ldaw (ru6)      r0, sp[0x1a]
             0x000802b0: 01 f0 58 6c: ldw (lru6)      r1, cp[0x58]
             0x000802b4: e4 90:       add (2rus)      r2, r5, 0x0
             0x000802b6: 00 f0 fb d0: bl (lu10)       0xfb <_ZN13XCTimerMicros4waitEx>
             0x000802ba: 8e 55:       stw (ru6)       r6, sp[0xe]
             0x000802bc: 8f 56:       stw (ru6)       r10, sp[0xf]
             0x000802be: 8c 55:       stw (ru6)       r6, sp[0xc]
             0x000802c0: 4d 55:       stw (ru6)       r5, sp[0xd]
             0x000802c2: 0c 64:       ldaw (ru6)      r0, sp[0xc]
             0x000802c4: 00 f0 e2 d0: bl (lu10)       0xe2 <_ZNK6XCPort8bitproxycvjEv>
             0x000802c8: 10 90:       add (2rus)      r1, r0, 0x0
             0x000802ca: 0e 64:       ldaw (ru6)      r0, sp[0xe]
             0x000802cc: 00 f0 c8 d0: bl (lu10)       0xc8 <_ZN6XCPort8bitproxyaSEj>
             0x000802d0: 8a 55:       stw (ru6)       r6, sp[0xa]
             0x000802d2: 0b 55:       stw (ru6)       r4, sp[0xb]
             0x000802d4: 20 65:       ldaw (ru6)      r4, sp[0x20]
             0x000802d6: c0 90:       add (2rus)      r0, r4, 0x0
             0x000802d8: 00 f0 56 d1: bl (lu10)       0x156 <_ZNK9XCPortBit6getValEv>
             0x000802dc: 10 90:       add (2rus)      r1, r0, 0x0
             0x000802de: 0a 64:       ldaw (ru6)      r0, sp[0xa]
             0x000802e0: 00 f0 be d0: bl (lu10)       0xbe <_ZN6XCPort8bitproxyaSEj>
             0x000802e4: 25 5c:       ldw (ru6)       r0, sp[0x25]
             0x000802e6: 01 f0 5f 6c: ldw (lru6)      r1, cp[0x5f]
             0x000802ea: 11 38:       and (3r)        r1, r0, r1
             0x000802ec: a4 5c:       ldw (ru6)       r2, sp[0x24]
             0x000802ee: c6 ae:       out (r2r)       res[r2], r1
             0x000802f0: 01 f0 5c 6c: ldw (lru6)      r1, cp[0x5c]
             0x000802f4: 01 38:       and (3r)        r0, r0, r1
             0x000802f6: 25 54:       stw (ru6)       r0, sp[0x25]
             0x000802f8: 64 5c:       ldw (ru6)       r1, sp[0x24]
             0x000802fa: c1 ae:       out (r2r)       res[r1], r0
             0x000802fc: 22 64:       ldaw (ru6)      r0, sp[0x22]
             0x000802fe: 00 f0 43 d1: bl (lu10)       0x143 <_ZNK9XCPortBit6getValEv>
             0x00080302: 70 90:       add (2rus)      r7, r0, 0x0
             0x00080304: c0 90:       add (2rus)      r0, r4, 0x0
             0x00080306: 00 f0 3f d1: bl (lu10)       0x13f <_ZNK9XCPortBit6getValEv>
             0x0008030a: 80 90:       add (2rus)      r8, r0, 0x0
             0x0008030c: 1e 64:       ldaw (ru6)      r0, sp[0x1e]
             0x0008030e: 00 f0 3b d1: bl (lu10)       0x13b <_ZNK9XCPortBit6getValEv>
             0x00080312: 90 90:       add (2rus)      r9, r0, 0x0
             0x00080314: 1c 64:       ldaw (ru6)      r0, sp[0x1c]
             0x00080316: 40 90:       add (2rus)      r4, r0, 0x0
             0x00080318: 00 f0 36 d1: bl (lu10)       0x136 <_ZNK9XCPortBit6getValEv>
             0x0008031c: 48 f0 74 68: ldc (lru6)      r1, 0x1234
             0x00080320: 42 54:       stw (ru6)       r1, sp[0x2]
             0x00080322: 01 54:       stw (ru6)       r0, sp[0x1]
             0x00080324: 01 f0 79 7f: ldaw (lu6)      r11, cp[0x79]
             0x00080328: 8c 91:       add (2rus)      r0, r11, 0x0
             0x0008032a: dc 90:       add (2rus)      r1, r7, 0x0
             0x0008032c: a0 91:       add (2rus)      r2, r8, 0x0
             0x0008032e: b4 91:       add (2rus)      r3, r9, 0x0
             0x00080330: 00 f0 90 d1: bl (lu10)       0x190 <debug_printf>
             0x00080334: 1a 64:       ldaw (ru6)      r0, sp[0x1a]
             0x00080336: 01 f0 58 6c: ldw (lru6)      r1, cp[0x58]
             0x0008033a: e4 90:       add (2rus)      r2, r5, 0x0
             0x0008033c: 00 f0 b8 d0: bl (lu10)       0xb8 <_ZN13XCTimerMicros4waitEx>
             0x00080340: 09 5c:       ldw (ru6)       r0, sp[0x9]
             0x00080342: 01 98:       sub (2rus)      r0, r0, 0x1
             0x00080344: 02 f0 09 74: bt (lru6)       r0, -0x89 <.label21>
             0x00080348: 04 91:       add (2rus)      r4, r5, 0x0
             0x0008034a: 25 55:       stw (ru6)       r4, sp[0x25]
             0x0008034c: 24 5c:       ldw (ru6)       r0, sp[0x24]
             0x0008034e: 00 af:       out (r2r)       res[r0], r4
             0x00080350: 5a 65:       ldaw (ru6)      r5, sp[0x1a]
             0x00080352: 01 f0 98 6d: ldw (lru6)      r6, cp[0x58]
             0x00080356: c4 90:       add (2rus)      r0, r5, 0x0
             0x00080358: d8 90:       add (2rus)      r1, r6, 0x0
             0x0008035a: e0 90:       add (2rus)      r2, r4, 0x0
             0x0008035c: 00 f0 a8 d0: bl (lu10)       0xa8 <_ZN13XCTimerMicros4waitEx>
             0x00080360: 62 5e:       ldw (ru6)       r9, sp[0x22]
             0x00080362: 23 5c:       ldw (ru6)       r0, sp[0x23]
             0x00080364: 98 91:       add (2rus)      r1, r10, 0x0
             0x00080366: 04 20:       shl (3r)        r0, r1, r0
             0x00080368: 09 54:       stw (ru6)       r0, sp[0x9]
             0x0008036a: c0 8e:       not (2r)        r0, r0
             0x0008036c: 08 54:       stw (ru6)       r0, sp[0x8]
             0x0008036e: a0 5e:       ldw (ru6)       r10, sp[0x20]
             0x00080370: 21 5c:       ldw (ru6)       r0, sp[0x21]
             0x00080372: 84 20:       shl (3r)        r8, r1, r0
             0x00080374: 20 8f:       not (2r)        r0, r8
             0x00080376: 07 54:       stw (ru6)       r0, sp[0x7]
             0x00080378: c2 69:       ldc (ru6)       r7, 0x2
.label22     0x0008037a: 85 09:       ldw (2rus)      r0, r9[0x1]
             0x0008037c: 49 5c:       ldw (ru6)       r1, sp[0x9]
             0x0008037e: 01 40:       or (3r)         r0, r0, r1
             0x00080380: 85 01:       stw (2rus)      r0, r9[0x1]
             0x00080382: 94 09:       ldw (2rus)      r1, r9[0x0]
             0x00080384: c1 ae:       out (r2r)       res[r1], r0
             0x00080386: c4 90:       add (2rus)      r0, r5, 0x0
             0x00080388: d8 90:       add (2rus)      r1, r6, 0x0
             0x0008038a: e0 90:       add (2rus)      r2, r4, 0x0
             0x0008038c: 00 f0 90 d0: bl (lu10)       0x90 <_ZN13XCTimerMicros4waitEx>
             0x00080390: 85 09:       ldw (2rus)      r0, r9[0x1]
             0x00080392: 48 5c:       ldw (ru6)       r1, sp[0x8]
             0x00080394: 01 38:       and (3r)        r0, r0, r1
             0x00080396: 85 01:       stw (2rus)      r0, r9[0x1]
             0x00080398: 94 09:       ldw (2rus)      r1, r9[0x0]
             0x0008039a: c1 ae:       out (r2r)       res[r1], r0
             0x0008039c: 89 09:       ldw (2rus)      r0, r10[0x1]
             0x0008039e: 80 44:       or (3r)         r0, r0, r8
             0x000803a0: 89 01:       stw (2rus)      r0, r10[0x1]
             0x000803a2: 98 09:       ldw (2rus)      r1, r10[0x0]
             0x000803a4: c1 ae:       out (r2r)       res[r1], r0
             0x000803a6: c4 90:       add (2rus)      r0, r5, 0x0
             0x000803a8: d8 90:       add (2rus)      r1, r6, 0x0
             0x000803aa: e0 90:       add (2rus)      r2, r4, 0x0
             0x000803ac: 00 f0 80 d0: bl (lu10)       0x80 <_ZN13XCTimerMicros4waitEx>
             0x000803b0: 89 09:       ldw (2rus)      r0, r10[0x1]
             0x000803b2: 47 5c:       ldw (ru6)       r1, sp[0x7]
             0x000803b4: 01 38:       and (3r)        r0, r0, r1
             0x000803b6: 89 01:       stw (2rus)      r0, r10[0x1]
             0x000803b8: 98 09:       ldw (2rus)      r1, r10[0x0]
             0x000803ba: c1 ae:       out (r2r)       res[r1], r0
             0x000803bc: 25 5c:       ldw (ru6)       r0, sp[0x25]
             0x000803be: 44 68:       ldc (ru6)       r1, 0x4
             0x000803c0: 01 40:       or (3r)         r0, r0, r1
             0x000803c2: 25 54:       stw (ru6)       r0, sp[0x25]
             0x000803c4: 64 5c:       ldw (ru6)       r1, sp[0x24]
             0x000803c6: c1 ae:       out (r2r)       res[r1], r0
             0x000803c8: c4 90:       add (2rus)      r0, r5, 0x0
             0x000803ca: d8 90:       add (2rus)      r1, r6, 0x0
             0x000803cc: e0 90:       add (2rus)      r2, r4, 0x0
             0x000803ce: 00 f0 6f d0: bl (lu10)       0x6f <_ZN13XCTimerMicros4waitEx>
             0x000803d2: 25 5c:       ldw (ru6)       r0, sp[0x25]
             0x000803d4: 01 f0 5d 6c: ldw (lru6)      r1, cp[0x5d]
             0x000803d8: 01 38:       and (3r)        r0, r0, r1
             0x000803da: 25 54:       stw (ru6)       r0, sp[0x25]
             0x000803dc: 64 5c:       ldw (ru6)       r1, sp[0x24]
             0x000803de: c1 ae:       out (r2r)       res[r1], r0
             0x000803e0: 1c 64:       ldaw (ru6)      r0, sp[0x1c]
             0x000803e2: 5e 64:       ldaw (ru6)      r1, sp[0x1e]
             0x000803e4: 00 f0 9c d0: bl (lu10)       0x9c <_ZN9XCPortBitaSERKS_>
             0x000803e8: c4 90:       add (2rus)      r0, r5, 0x0
             0x000803ea: d8 90:       add (2rus)      r1, r6, 0x0
             0x000803ec: e0 90:       add (2rus)      r2, r4, 0x0
             0x000803ee: 00 f0 5f d0: bl (lu10)       0x5f <_ZN13XCTimerMicros4waitEx>
             0x000803f2: 1c 5c:       ldw (ru6)       r0, sp[0x1c]
             0x000803f4: 5d 5c:       ldw (ru6)       r1, sp[0x1d]
             0x000803f6: 21 08:       ldw (2rus)      r2, r0[0x1]
             0x000803f8: dd a6:       mkmsk (rus)     r3, 0x1
             0x000803fa: 1d 20:       shl (3r)        r1, r3, r1
             0x000803fc: c9 2e:       andnot (2r)     r2, r1
             0x000803fe: 21 00:       stw (2rus)      r2, r0[0x1]
             0x00080400: 00 08:       ldw (2rus)      r0, r0[0x0]
             0x00080402: c8 ae:       out (r2r)       res[r0], r2
             0x00080404: 3d 99:       sub (2rus)      r7, r7, 0x1
             0x00080406: 01 f0 c8 75: bt (lru6)       r7, -0x48 <.label22>
             0x0008040a: 24 5c:       ldw (ru6)       r0, sp[0x24]
             0x0008040c: 00 af:       out (r2r)       res[r0], r4
             0x0008040e: e0 87:       clrpt (1r)      res[r0]
             0x00080410: cc 3e:       getts (2r)      r3, res[r0]
             0x00080412: 1c 90:       add (2rus)      r1, r3, 0x0
             0x00080414: 35 47:       zext (rus)      r1, 0x10
             0x00080416: 9c f0 90 68: ldc (lru6)      r2, 0x2710
             0x0008041a: 2e 10:       add (3r)        r2, r3, r2
             0x0008041c: eb 8f:       gettime (1r)    r11
             0x0008041e: 39 47:       zext (rus)      r2, 0x10
             0x00080420: d8 3e:       setpt (r2r)     res[r0], r2
             0x00080422: 00 af:       out (r2r)       res[r0], r4
             0x00080424: 38 f1 60 69: ldc (lru6)      r5, 0x4e20
             0x00080428: 7d 12:       add (3r)        r3, r3, r5
             0x0008042a: 3d 47:       zext (rus)      r3, 0x10
             0x0008042c: dc 3e:       setpt (r2r)     res[r0], r3
             0x0008042e: 25 55:       stw (ru6)       r4, sp[0x25]
             0x00080430: 00 af:       out (r2r)       res[r0], r4
             0x00080432: c0 3e:       getts (2r)      r0, res[r0]
             0x00080434: e4 8f:       gettime (1r)    r4
             0x00080436: f3 1d:       sub (3r)        r11, r4, r11
             0x00080438: 31 47:       zext (rus)      r0, 0x10
             0x0008043a: c2 56:       stw (ru6)       r11, sp[0x2]
             0x0008043c: 01 54:       stw (ru6)       r0, sp[0x1]
             0x0008043e: 01 f0 68 7f: ldaw (lu6)      r11, cp[0x68]
             0x00080442: 8c 91:       add (2rus)      r0, r11, 0x0
             0x00080444: 00 f0 06 d1: bl (lu10)       0x106 <debug_printf>
             0x00080448: 24 5c:       ldw (ru6)       r0, sp[0x24]
             0x0008044a: 01 78:       bf (ru6)        r0, 0x1 <.label23>
             0x0008044c: 00 e8:       setc (ru6)      res[r0], 0x0
.label23     0x0008044e: ac 5e:       ldw (ru6)       r10, sp[0x2c]
             0x00080450: 2a 5e:       ldw (ru6)       r8, sp[0x2a]
             0x00080452: 6b 5e:       ldw (ru6)       r9, sp[0x2b]
             0x00080454: a8 5d:       ldw (ru6)       r6, sp[0x28]
             0x00080456: e9 5d:       ldw (ru6)       r7, sp[0x29]
             0x00080458: 26 5d:       ldw (ru6)       r4, sp[0x26]
             0x0008045a: 67 5d:       ldw (ru6)       r5, sp[0x27]
             0x0008045c: ee 77:       retsp (u6)      0x2e
             0x0008045e: 00 00:       stw (2rus)      r0, r0[0x0]

<_ZN6XCPort8bitproxyaSEj>:
             0x00080460: 00 f0 40 77: entsp (lu6)     0x0
             0x00080464: 82 77:       extsp (u6)      0x2
             0x00080466: 00 55:       stw (ru6)       r4, sp[0x0]
             0x00080468: 20 08:       ldw (2rus)      r2, r0[0x0]
             0x0008046a: b1 08:       ldw (2rus)      r11, r0[0x1]
             0x0008046c: 39 08:       ldw (2rus)      r3, r2[0x1]
             0x0008046e: 11 a7:       mkmsk (rus)     r4, 0x1
             0x00080470: f3 25:       shl (3r)        r11, r4, r11
             0x00080472: 45 78:       bf (ru6)        r1, 0x5 <.label24>
             0x00080474: 9f 44:       or (3r)         r1, r3, r11
             0x00080476: 19 00:       stw (2rus)      r1, r2[0x1]
             0x00080478: 28 08:       ldw (2rus)      r2, r2[0x0]
             0x0008047a: c6 ae:       out (r2r)       res[r2], r1
             0x0008047c: 04 73:       bu (u6)         0x4 <.label25>
.label24     0x0008047e: 2f 2f:       andnot (2r)     r3, r11
             0x00080480: 39 00:       stw (2rus)      r3, r2[0x1]
             0x00080482: 18 08:       ldw (2rus)      r1, r2[0x0]
             0x00080484: cd ae:       out (r2r)       res[r1], r3
.label25     0x00080486: 00 5d:       ldw (ru6)       r4, sp[0x0]
             0x00080488: 82 67:       ldaw (ru6)      sp, sp[0x2]
             0x0008048a: c0 77:       retsp (u6)      0x0

<_ZNK6XCPort8bitproxycvjEv>:
             0x0008048c: 00 f0 40 77: entsp (lu6)     0x0
             0x00080490: 10 90:       add (2rus)      r1, r0, 0x0
             0x00080492: 04 08:       ldw (2rus)      r0, r1[0x0]
             0x00080494: 20 08:       ldw (2rus)      r2, r0[0x0]
             0x00080496: 01 f0 d6 6c: ldw (lru6)      r3, cp[0x56]
             0x0008049a: 2b 38:       and (3r)        r2, r2, r3
             0x0008049c: 01 f0 d5 6c: ldw (lru6)      r3, cp[0x55]
             0x000804a0: 2b 30:       eq (3r)         r2, r2, r3
             0x000804a2: 01 08:       ldw (2rus)      r0, r0[0x1]
             0x000804a4: 83 70:       bt (ru6)        r2, 0x3 <.label26>
             0x000804a6: 15 08:       ldw (2rus)      r1, r1[0x1]
             0x000804a8: 01 28:       shr (3r)        r0, r0, r1
             0x000804aa: d1 46:       zext (rus)      r0, 0x1
.label26     0x000804ac: c0 77:       retsp (u6)      0x0
             0x000804ae: 00 00:       stw (2rus)      r0, r0[0x0]

<_ZN13XCTimerMicros4waitEx>:
             0x000804b0: 00 f0 46 77: entsp (lu6)     0x6
             0x000804b4: 05 f9 ec f7: std (l2rus)     r5, r4, sp[0x1]
             0x000804b8: 2e f9 ec f7: std (l2rus)     r7, r6, sp[0x2]
             0x000804bc: 58 90:       add (2rus)      r5, r2, 0x0
             0x000804be: 64 90:       add (2rus)      r6, r1, 0x0
             0x000804c0: 40 90:       add (2rus)      r4, r0, 0x0
             0x000804c2: 00 f0 db d1: bl (lu10)       0x1db <_ZN2XC6microsEv> <XC_USE_TIMER_END> <XC_USE_CHANEND_END>
             0x000804c6: c0 69:       ldc (ru6)       r7, 0x0
             0x000804c8: a2 fa 93 07: ladd (l5r)      r0, r6, r0, r6, r7
             0x000804cc: 95 fa d0 06: ladd (l5r)      r0, r5, r1, r5, r0
.label27     0x000804d0: 00 f0 d4 d1: bl (lu10)       0x1d4 <_ZN2XC6microsEv> <XC_USE_TIMER_END> <XC_USE_CHANEND_END>
             0x000804d4: 42 fa 8b 0f: lsub (l5r)      r2, r0, r0, r6, r7
             0x000804d8: 45 fa c6 0e: lsub (l5r)      r1, r0, r1, r5, r2
             0x000804dc: 00 f8 ec 97: ashr (l2rus)    r0, r0, 0x20
             0x000804e0: 09 74:       bt (ru6)        r0, -0x9 <.label27>
             0x000804e2: c0 90:       add (2rus)      r0, r4, 0x0
             0x000804e4: 2e f9 ec ef: ldd (l2rus)     r7, r6, sp[0x2]
             0x000804e8: 05 f9 ec ef: ldd (l2rus)     r5, r4, sp[0x1]
             0x000804ec: c6 77:       retsp (u6)      0x6
             0x000804ee: 00 00:       stw (2rus)      r0, r0[0x0]

<_ZN9XCPortBit3setEv>:
             0x000804f0: 00 f0 40 77: entsp (lu6)     0x0
             0x000804f4: 10 08:       ldw (2rus)      r1, r0[0x0]
             0x000804f6: 21 08:       ldw (2rus)      r2, r0[0x1]
             0x000804f8: 35 08:       ldw (2rus)      r3, r1[0x1]
             0x000804fa: 5d a7:       mkmsk (rus)     r11, 0x1
             0x000804fc: ae 21:       shl (3r)        r2, r11, r2
             0x000804fe: 2e 40:       or (3r)         r2, r3, r2
             0x00080500: 25 00:       stw (2rus)      r2, r1[0x1]
             0x00080502: 14 08:       ldw (2rus)      r1, r1[0x0]
             0x00080504: c9 ae:       out (r2r)       res[r1], r2
             0x00080506: c0 77:       retsp (u6)      0x0

<_ZN9XCPortBit3clrEv>:
             0x00080508: 00 f0 40 77: entsp (lu6)     0x0
             0x0008050c: 10 08:       ldw (2rus)      r1, r0[0x0]
             0x0008050e: 21 08:       ldw (2rus)      r2, r0[0x1]
             0x00080510: 35 08:       ldw (2rus)      r3, r1[0x1]
             0x00080512: 5d a7:       mkmsk (rus)     r11, 0x1
             0x00080514: ae 21:       shl (3r)        r2, r11, r2
             0x00080516: ce 2e:       andnot (2r)     r3, r2
             0x00080518: 35 00:       stw (2rus)      r3, r1[0x1]
             0x0008051a: 14 08:       ldw (2rus)      r1, r1[0x0]
             0x0008051c: cd ae:       out (r2r)       res[r1], r3
             0x0008051e: c0 77:       retsp (u6)      0x0

<_ZN9XCPortBitaSERKS_>:
             0x00080520: 00 f0 46 77: entsp (lu6)     0x6
             0x00080524: 05 f9 ec f7: std (l2rus)     r5, r4, sp[0x1]
             0x00080528: 84 55:       stw (ru6)       r6, sp[0x4]
             0x0008052a: 54 90:       add (2rus)      r5, r1, 0x0
             0x0008052c: 40 90:       add (2rus)      r4, r0, 0x0
             0x0008052e: c4 90:       add (2rus)      r0, r5, 0x0
             0x00080530: 00 f0 2a d0: bl (lu10)       0x2a <_ZNK9XCPortBit6getValEv>
             0x00080534: 60 90:       add (2rus)      r6, r0, 0x0
             0x00080536: c0 90:       add (2rus)      r0, r4, 0x0
             0x00080538: 00 f0 26 d0: bl (lu10)       0x26 <_ZNK9XCPortBit6getValEv>
             0x0008053c: c8 30:       eq (3r)         r0, r6, r0
             0x0008053e: 07 70:       bt (ru6)        r0, 0x7 <.label28>
             0x00080540: c4 90:       add (2rus)      r0, r5, 0x0
             0x00080542: 00 f0 21 d0: bl (lu10)       0x21 <_ZNK9XCPortBit6getValEv>
             0x00080546: 10 90:       add (2rus)      r1, r0, 0x0
             0x00080548: c0 90:       add (2rus)      r0, r4, 0x0
             0x0008054a: 00 f0 0f d0: bl (lu10)       0xf <_ZN9XCPortBit3setEj>
.label28     0x0008054e: c0 90:       add (2rus)      r0, r4, 0x0
             0x00080550: 84 5d:       ldw (ru6)       r6, sp[0x4]
             0x00080552: 05 f9 ec ef: ldd (l2rus)     r5, r4, sp[0x1]
             0x00080556: c6 77:       retsp (u6)      0x6

<tile0_task1>:
             0x00080558: 00 f0 42 77: entsp (lu6)     0x2
             0x0008055c: 00 f0 c4 d5: bl (lu10)       -0x1c4 <_Z8testLedsv>
             0x00080560: c2 77:       retsp (u6)      0x2
             0x00080562: 00 00:       stw (2rus)      r0, r0[0x0]

<tile0_task2>:
             0x00080564: 00 f0 40 77: entsp (lu6)     0x0
             0x00080568: c0 77:       retsp (u6)      0x0
             0x0008056a: 00 00:       stw (2rus)      r0, r0[0x0]

<_ZN9XCPortBit3setEj>:
             0x0008056c: 00 f0 44 77: entsp (lu6)     0x4
             0x00080570: 02 55:       stw (ru6)       r4, sp[0x2]
             0x00080572: 40 90:       add (2rus)      r4, r0, 0x0
             0x00080574: 43 78:       bf (ru6)        r1, 0x3 <.label29>
             0x00080576: 00 f0 45 d4: bl (lu10)       -0x45 <_ZN9XCPortBit3setEv>
             0x0008057a: 02 73:       bu (u6)         0x2 <.label30>
.label29     0x0008057c: 00 f0 3c d4: bl (lu10)       -0x3c <_ZN9XCPortBit3clrEv>
.label30     0x00080580: c0 90:       add (2rus)      r0, r4, 0x0
             0x00080582: 02 5d:       ldw (ru6)       r4, sp[0x2]
             0x00080584: c4 77:       retsp (u6)      0x4
             0x00080586: 00 00:       stw (2rus)      r0, r0[0x0]

<_ZNK9XCPortBit6getValEv>:
             0x00080588: 00 f0 40 77: entsp (lu6)     0x0
             0x0008058c: 10 90:       add (2rus)      r1, r0, 0x0
             0x0008058e: 04 08:       ldw (2rus)      r0, r1[0x0]
             0x00080590: 20 08:       ldw (2rus)      r2, r0[0x0]
             0x00080592: 01 f0 d6 6c: ldw (lru6)      r3, cp[0x56]
             0x00080596: 2b 38:       and (3r)        r2, r2, r3
             0x00080598: 01 f0 d5 6c: ldw (lru6)      r3, cp[0x55]
             0x0008059c: 2b 30:       eq (3r)         r2, r2, r3
             0x0008059e: 01 08:       ldw (2rus)      r0, r0[0x1]
             0x000805a0: 83 70:       bt (ru6)        r2, 0x3 <.label31>
             0x000805a2: 15 08:       ldw (2rus)      r1, r1[0x1]
             0x000805a4: 01 28:       shr (3r)        r0, r0, r1
             0x000805a6: d1 46:       zext (rus)      r0, 0x1
.label31     0x000805a8: c0 77:       retsp (u6)      0x0
             0x000805aa: 00 00:       stw (2rus)      r0, r0[0x0]

<_ZN6XCPort7setModeENS_10PortMode_tEj>:
             0x000805ac: 00 f0 40 77: entsp (lu6)     0x0
             0x000805b0: 15 98:       sub (2rus)      r1, r1, 0x1
             0x000805b2: de a6:       mkmsk (rus)     r3, 0x2
             0x000805b4: 3d c8:       lsu (3r)        r3, r3, r1
             0x000805b6: d6 70:       bt (ru6)        r3, 0x16 <.label32>
             0x000805b8: e1 2f:       bru (1r)        r1
             0x000805ba: 03 73:       bu (u6)         0x3 <.label33>
             0x000805bc: 05 73:       bu (u6)         0x5 <.label34>
             0x000805be: 09 73:       bu (u6)         0x9 <.label35>
             0x000805c0: 0d 73:       bu (u6)         0xd <.label36>
.label33     0x000805c2: 10 08:       ldw (2rus)      r1, r0[0x0]
             0x000805c4: c5 b6:       in (2r)         r1, res[r1]
             0x000805c6: 0e 73:       bu (u6)         0xe <.label32>
.label34     0x000805c8: 21 00:       stw (2rus)      r2, r0[0x1]
             0x000805ca: 10 08:       ldw (2rus)      r1, r0[0x0]
             0x000805cc: c9 ae:       out (r2r)       res[r1], r2
             0x000805ce: 43 e8:       setc (ru6)      res[r1], 0x3
             0x000805d0: 09 73:       bu (u6)         0x9 <.label32>
.label35     0x000805d2: 21 00:       stw (2rus)      r2, r0[0x1]
             0x000805d4: 10 08:       ldw (2rus)      r1, r0[0x0]
             0x000805d6: c9 ae:       out (r2r)       res[r1], r2
             0x000805d8: 53 e8:       setc (ru6)      res[r1], 0x13
             0x000805da: 04 73:       bu (u6)         0x4 <.label32>
.label36     0x000805dc: 21 00:       stw (2rus)      r2, r0[0x1]
             0x000805de: 10 08:       ldw (2rus)      r1, r0[0x0]
             0x000805e0: c9 ae:       out (r2r)       res[r1], r2
             0x000805e2: 4b e8:       setc (ru6)      res[r1], 0xb
.label32     0x000805e4: c0 77:       retsp (u6)      0x0
             0x000805e6: 00 00:       stw (2rus)      r0, r0[0x0]

<_GLOBAL__sub_I_tests.cpp>:
             0x000805e8: 00 f0 46 77: entsp (lu6)     0x6
             0x000805ec: 05 f9 ec f7: std (l2rus)     r5, r4, sp[0x1]
             0x000805f0: 84 55:       stw (ru6)       r6, sp[0x4]
             0x000805f2: 01 f0 57 6d: ldw (lru6)      r5, cp[0x57]
             0x000805f6: 00 f0 56 51: stw (lru6)      r5, dp[0x16]
             0x000805fa: 48 e9:       setc (ru6)      res[r5], 0x8
             0x000805fc: 00 f0 2e de: ldap (lu10)     r11, -0x22e <__dtor_PIN>
             0x00080600: 8c 91:       add (2rus)      r0, r11, 0x0
             0x00080602: 00 f0 29 d3: bl (lu10)       0x329 <atexit>
             0x00080606: 00 f0 58 51: stw (lru6)      r5, dp[0x18]
             0x0008060a: 00 f0 18 61: ldaw (lru6)     r4, dp[0x18]
             0x0008060e: 48 e9:       setc (ru6)      res[r5], 0x8
             0x00080610: 80 69:       ldc (ru6)       r6, 0x0
             0x00080612: 00 f0 99 51: stw (lru6)      r6, dp[0x19]
             0x00080616: c9 af:       out (r2r)       res[r5], r6
             0x00080618: 43 e9:       setc (ru6)      res[r5], 0x3
             0x0008061a: 00 f0 2b de: ldap (lu10)     r11, -0x22b <__dtor_PLEDS>
             0x0008061e: 8c 91:       add (2rus)      r0, r11, 0x0
             0x00080620: 00 f0 1a d3: bl (lu10)       0x31a <atexit>
             0x00080624: 00 f0 1a 51: stw (lru6)      r4, dp[0x1a]
             0x00080628: 00 f0 9b 51: stw (lru6)      r6, dp[0x1b]
             0x0008062c: 00 f0 1c 51: stw (lru6)      r4, dp[0x1c]
             0x00080630: d1 a6:       mkmsk (rus)     r0, 0x1
             0x00080632: 00 f0 1d 50: stw (lru6)      r0, dp[0x1d]
             0x00080636: 00 f0 1e 51: stw (lru6)      r4, dp[0x1e]
             0x0008063a: 02 68:       ldc (ru6)       r0, 0x2
             0x0008063c: 00 f0 1f 50: stw (lru6)      r0, dp[0x1f]
             0x00080640: 00 f0 20 51: stw (lru6)      r4, dp[0x20]
             0x00080644: d2 a6:       mkmsk (rus)     r0, 0x2
             0x00080646: 00 f0 21 50: stw (lru6)      r0, dp[0x21]
             0x0008064a: 84 5d:       ldw (ru6)       r6, sp[0x4]
             0x0008064c: 05 f9 ec ef: ldd (l2rus)     r5, r4, sp[0x1]
             0x00080650: c6 77:       retsp (u6)      0x6
             0x00080652: 00 00:       stw (2rus)      r0, r0[0x0]

<debug_printf>:
             0x00080654: 00 f0 40 77: entsp (lu6)     0x0
             0x00080658: b2 77:       extsp (u6)      0x32
             0x0008065a: c1 57:       stw (ru6)       lr, sp[0x1]
             0x0008065c: 28 55:       stw (ru6)       r4, sp[0x28]
             0x0008065e: 69 55:       stw (ru6)       r5, sp[0x29]
             0x00080660: aa 55:       stw (ru6)       r6, sp[0x2a]
             0x00080662: eb 55:       stw (ru6)       r7, sp[0x2b]
             0x00080664: 2c 56:       stw (ru6)       r8, sp[0x2c]
             0x00080666: 6d 56:       stw (ru6)       r9, sp[0x2d]
             0x00080668: ae 56:       stw (ru6)       r10, sp[0x2e]
             0x0008066a: a0 90:       add (2rus)      r10, r0, 0x0
             0x0008066c: 70 54:       stw (ru6)       r1, sp[0x30]
             0x0008066e: b1 54:       stw (ru6)       r2, sp[0x31]
             0x00080670: f2 54:       stw (ru6)       r3, sp[0x32]
             0x00080672: 47 66:       ldaw (ru6)      r9, sp[0x7]
             0x00080674: 30 64:       ldaw (ru6)      r0, sp[0x30]
             0x00080676: 06 54:       stw (ru6)       r0, sp[0x6]
             0x00080678: 00 6a:       ldc (ru6)       r8, 0x0
             0x0008067a: 08 8e:       ld8u (3r)       r0, r10[r8]
             0x0008067c: 02 f0 36 78: bf (lru6)       r0, 0xb6 <.label37>
             0x00080680: 01 f0 b7 68: ldc (lru6)      r2, 0x77
             0x00080684: 47 64:       ldaw (ru6)      r1, sp[0x7]
             0x00080686: 26 10:       add (3r)        r2, r1, r2
             0x00080688: 85 54:       stw (ru6)       r2, sp[0x5]
             0x0008068a: 19 a7:       mkmsk (rus)     r6, 0x1
             0x0008068c: 01 f0 5b 6d: ldw (lru6)      r5, cp[0x5b]
             0x00080690: ca 69:       ldc (ru6)       r7, 0xa
             0x00080692: 94 90:       add (2rus)      r9, r1, 0x0
.label55     0x00080694: 45 5c:       ldw (ru6)       r1, sp[0x5]
             0x00080696: 95 cc:       lsu (3r)        r1, r1, r9
             0x00080698: 48 78:       bf (ru6)        r1, 0x8 <.label38>
             0x0008069a: 07 65:       ldaw (ru6)      r4, sp[0x7]
             0x0008069c: e4 1b:       sub (3r)        r2, r9, r4
             0x0008069e: c8 90:       add (2rus)      r0, r6, 0x0
             0x000806a0: d0 90:       add (2rus)      r1, r4, 0x0
             0x000806a2: 00 f0 c9 d6: bl (lu10)       -0x2c9 <_write>
             0x000806a6: 08 8e:       ld8u (3r)       r0, r10[r8]
             0x000806a8: 50 91:       add (2rus)      r9, r4, 0x0
.label38     0x000806aa: 10 90:       add (2rus)      r1, r0, 0x0
             0x000806ac: 34 47:       zext (rus)      r1, 0x8
             0x000806ae: a5 68:       ldc (ru6)       r2, 0x25
             0x000806b0: 16 30:       eq (3r)         r1, r1, r2
             0x000806b2: 71 78:       bf (ru6)        r1, 0x31 <.label39>
             0x000806b4: 89 91:       add (2rus)      r0, r10, 0x1
             0x000806b6: da 8b:       ld8u (3r)       r1, r10[r6]
             0x000806b8: 94 fc ec a7: ldaw (l2rus)    r1, r1[-0x8]
             0x000806bc: 34 47:       zext (rus)      r1, 0x8
             0x000806be: 25 a8:       shr (2rus)      r2, r1, 0x1
             0x000806c0: c6 68:       ldc (ru6)       r3, 0x6
             0x000806c2: 2e c8:       lsu (3r)        r2, r3, r2
             0x000806c4: 86 70:       bt (ru6)        r2, 0x6 <.label40>
             0x000806c6: d9 20:       shl (3r)        r1, r6, r1
             0x000806c8: a0 f0 89 68: ldc (lru6)      r2, 0x2809
             0x000806cc: 16 38:       and (3r)        r1, r1, r2
             0x000806ce: 41 78:       bf (ru6)        r1, 0x1 <.label40>
             0x000806d0: 8a 91:       add (2rus)      r0, r10, 0x2
.label40     0x000806d2: 11 98:       sub (2rus)      r1, r0, 0x1
.label41     0x000806d4: 45 90:       add (2rus)      r4, r1, 0x1
             0x000806d6: 46 8a:       ld8u (3r)       r0, r1[r6]
             0x000806d8: 51 12:       add (3r)        r1, r0, r5
             0x000806da: 34 47:       zext (rus)      r1, 0x8
             0x000806dc: 67 ca:       lsu (3r)        r2, r1, r7
             0x000806de: d0 90:       add (2rus)      r1, r4, 0x0
             0x000806e0: 87 74:       bt (ru6)        r2, -0x7 <.label41>
             0x000806e2: 00 f0 51 58: ldw (lru6)      r1, dp[0x11]
             0x000806e6: 11 10:       add (3r)        r1, r0, r1
             0x000806e8: 56 8a:       ld8u (3r)       r1, r1[r6]
             0x000806ea: d5 46:       zext (rus)      r1, 0x1
             0x000806ec: 42 78:       bf (ru6)        r1, 0x2 <.label42>
             0x000806ee: 80 fc ec 9f: ldaw (l2rus)    r0, r0[0x8]
.label42     0x000806f2: 01 f0 6f 68: ldc (lru6)      r1, 0x6f
             0x000806f6: 14 c0:       lss (3r)        r1, r1, r0
             0x000806f8: 55 70:       bt (ru6)        r1, 0x15 <.label43>
             0x000806fa: 01 f0 63 68: ldc (lru6)      r1, 0x63
             0x000806fe: 11 30:       eq (3r)         r1, r0, r1
             0x00080700: 6b 78:       bf (ru6)        r1, 0x2b <.label44>
             0x00080702: 06 5c:       ldw (ru6)       r0, sp[0x6]
             0x00080704: 50 92:       add (2rus)      r1, r0, 0x4
             0x00080706: 46 54:       stw (ru6)       r1, sp[0x6]
             0x00080708: 00 08:       ldw (2rus)      r0, r0[0x0]
             0x0008070a: 95 91:       add (2rus)      r1, r9, 0x1
             0x0008070c: 04 fe ec 8f: st8 (l3r)       r0, r9[r8]
             0x00080710: 94 90:       add (2rus)      r9, r1, 0x0
             0x00080712: 01 f0 27 73: bu (lu6)        0x67 <.label45>
.label39     0x00080716: 95 91:       add (2rus)      r1, r9, 0x1
             0x00080718: 04 fe ec 8f: st8 (l3r)       r0, r9[r8]
             0x0008071c: 94 90:       add (2rus)      r9, r1, 0x0
             0x0008071e: c8 91:       add (2rus)      r4, r10, 0x0
             0x00080720: 01 f0 20 73: bu (lu6)        0x60 <.label45>
.label43     0x00080724: 01 f0 5a 6c: ldw (lru6)      r1, cp[0x5a]
             0x00080728: 01 10:       add (3r)        r0, r0, r1
             0x0008072a: 48 68:       ldc (ru6)       r1, 0x8
             0x0008072c: 14 c8:       lsu (3r)        r1, r1, r0
             0x0008072e: 01 f0 59 70: bt (lru6)       r1, 0x59 <.label45>
             0x00080732: e0 2f:       bru (1r)        r0
             0x00080734: 0a 73:       bu (u6)         0xa <.label46>
             0x00080736: 07 73:       bu (u6)         0x7 <.label47>
             0x00080738: 06 73:       bu (u6)         0x6 <.label47>
             0x0008073a: 1d 73:       bu (u6)         0x1d <.label48>
             0x0008073c: 04 73:       bu (u6)         0x4 <.label47>
             0x0008073e: 3d 73:       bu (u6)         0x3d <.label49>
             0x00080740: 02 73:       bu (u6)         0x2 <.label47>
             0x00080742: 01 73:       bu (u6)         0x1 <.label47>
             0x00080744: 02 73:       bu (u6)         0x2 <.label46>
.label47     0x00080746: 01 f0 0d 73: bu (lu6)        0x4d <.label45>
.label46     0x0008074a: 06 5c:       ldw (ru6)       r0, sp[0x6]
             0x0008074c: 50 92:       add (2rus)      r1, r0, 0x4
             0x0008074e: 46 54:       stw (ru6)       r1, sp[0x6]
             0x00080750: 00 08:       ldw (2rus)      r0, r0[0x0]
             0x00080752: 94 91:       add (2rus)      r1, r9, 0x0
             0x00080754: 90 68:       ldc (ru6)       r2, 0x10
             0x00080756: 37 73:       bu (u6)         0x37 <.label50>
.label44     0x00080758: 01 f0 64 68: ldc (lru6)      r1, 0x64
             0x0008075c: 01 30:       eq (3r)         r0, r0, r1
             0x0008075e: 01 f0 01 78: bf (lru6)       r0, 0x41 <.label45>
             0x00080762: 20 92:       add (2rus)      r10, r8, 0x0
             0x00080764: 06 5c:       ldw (ru6)       r0, sp[0x6]
             0x00080766: 50 92:       add (2rus)      r1, r0, 0x4
             0x00080768: 46 54:       stw (ru6)       r1, sp[0x6]
             0x0008076a: 00 08:       ldw (2rus)      r0, r0[0x0]
             0x0008076c: 10 f8 ec 97: ashr (l2rus)    r1, r0, 0x20
             0x00080770: 6e 70:       bt (ru6)        r1, 0x2e <.label51>
             0x00080772: 04 92:       add (2rus)      r8, r9, 0x0
             0x00080774: 31 73:       bu (u6)         0x31 <.label52>
.label48     0x00080776: 06 5c:       ldw (ru6)       r0, sp[0x6]
             0x00080778: 50 92:       add (2rus)      r1, r0, 0x4
             0x0008077a: 46 54:       stw (ru6)       r1, sp[0x6]
             0x0008077c: 00 08:       ldw (2rus)      r0, r0[0x0]
             0x0008077e: 04 54:       stw (ru6)       r0, sp[0x4]
             0x00080780: 00 f0 74 d2: bl (lu10)       0x274 <strlen>
             0x00080784: 80 90:       add (2rus)      r8, r0, 0x0
             0x00080786: 01 f0 38 68: ldc (lru6)      r0, 0x78
             0x0008078a: 80 c1:       lss (3r)        r0, r8, r0
             0x0008078c: 07 70:       bt (ru6)        r0, 0x7 <.label53>
             0x0008078e: 87 66:       ldaw (ru6)      r10, sp[0x7]
             0x00080790: 26 1e:       sub (3r)        r2, r9, r10
             0x00080792: c8 90:       add (2rus)      r0, r6, 0x0
             0x00080794: 98 91:       add (2rus)      r1, r10, 0x0
             0x00080796: 00 f0 43 d7: bl (lu10)       -0x343 <_write>
             0x0008079a: 18 92:       add (2rus)      r9, r10, 0x0
.label53     0x0008079c: 01 f0 37 68: ldc (lru6)      r0, 0x77
             0x000807a0: 10 90:       add (2rus)      r1, r0, 0x0
             0x000807a2: 84 c4:       lss (3r)        r0, r1, r8
             0x000807a4: a4 90:       add (2rus)      r10, r1, 0x0
             0x000807a6: 01 70:       bt (ru6)        r0, 0x1 <.label54>
             0x000807a8: 20 92:       add (2rus)      r10, r8, 0x0
.label54     0x000807aa: 84 91:       add (2rus)      r0, r9, 0x0
             0x000807ac: 44 5c:       ldw (ru6)       r1, sp[0x4]
             0x000807ae: a8 91:       add (2rus)      r2, r10, 0x0
             0x000807b0: 00 f0 66 d2: bl (lu10)       0x266 <memcpy> <__memcpy_4>
             0x000807b4: 96 16:       add (3r)        r9, r9, r10
             0x000807b6: 00 6a:       ldc (ru6)       r8, 0x0
             0x000807b8: 15 73:       bu (u6)         0x15 <.label45>
.label49     0x000807ba: 06 5c:       ldw (ru6)       r0, sp[0x6]
             0x000807bc: 50 92:       add (2rus)      r1, r0, 0x4
             0x000807be: 46 54:       stw (ru6)       r1, sp[0x6]
             0x000807c0: 00 08:       ldw (2rus)      r0, r0[0x0]
             0x000807c2: 94 91:       add (2rus)      r1, r9, 0x0
             0x000807c4: ec 90:       add (2rus)      r2, r7, 0x0
.label50     0x000807c6: 00 f0 21 d0: bl (lu10)       0x21 <itoa>
             0x000807ca: 14 12:       add (3r)        r9, r9, r0
             0x000807cc: 0b 73:       bu (u6)         0xb <.label45>
.label51     0x000807ce: 05 92:       add (2rus)      r8, r9, 0x1
             0x000807d0: 6d 68:       ldc (ru6)       r1, 0x2d
             0x000807d2: 16 fe ec 8f: st8 (l3r)       r1, r9[r10]
             0x000807d6: c0 96:       neg (2r)        r0, r0
.label52     0x000807d8: 90 91:       add (2rus)      r1, r8, 0x0
             0x000807da: ec 90:       add (2rus)      r2, r7, 0x0
             0x000807dc: 00 f0 16 d0: bl (lu10)       0x16 <itoa>
             0x000807e0: 10 12:       add (3r)        r9, r8, r0
             0x000807e2: 08 92:       add (2rus)      r8, r10, 0x0
.label45     0x000807e4: 61 91:       add (2rus)      r10, r4, 0x1
             0x000807e6: 02 8b:       ld8u (3r)       r0, r4[r6]
             0x000807e8: 02 f0 2c 74: bt (lru6)       r0, -0xac <.label55>
.label37     0x000807ec: 47 64:       ldaw (ru6)      r1, sp[0x7]
             0x000807ee: a5 19:       sub (3r)        r2, r9, r1
             0x000807f0: d1 a6:       mkmsk (rus)     r0, 0x1
             0x000807f2: 00 f0 71 d7: bl (lu10)       -0x371 <_write>
             0x000807f6: ae 5e:       ldw (ru6)       r10, sp[0x2e]
             0x000807f8: 2c 5e:       ldw (ru6)       r8, sp[0x2c]
             0x000807fa: 6d 5e:       ldw (ru6)       r9, sp[0x2d]
             0x000807fc: aa 5d:       ldw (ru6)       r6, sp[0x2a]
             0x000807fe: eb 5d:       ldw (ru6)       r7, sp[0x2b]
             0x00080800: 28 5d:       ldw (ru6)       r4, sp[0x28]
             0x00080802: 69 5d:       ldw (ru6)       r5, sp[0x29]
             0x00080804: c1 5f:       ldw (ru6)       lr, sp[0x1]
             0x00080806: b2 67:       ldaw (ru6)      sp, sp[0x32]
             0x00080808: c0 77:       retsp (u6)      0x0
             0x0008080a: 00 00:       stw (2rus)      r0, r0[0x0]

<itoa>:
             0x0008080c: 00 f0 46 77: entsp (lu6)     0x6
             0x00080810: 05 f9 ec f7: std (l2rus)     r5, r4, sp[0x1]
             0x00080814: 84 55:       stw (ru6)       r6, sp[0x4]
             0x00080816: 44 90:       add (2rus)      r4, r1, 0x0
             0x00080818: 40 68:       ldc (ru6)       r1, 0x0
             0x0008081a: 10 78:       bf (ru6)        r0, 0x10 <.label56>
             0x0008081c: 30 90:       add (2rus)      r3, r0, 0x0
.label57     0x0008081e: 5e f8 ec 4f: divu (l3r)      r5, r3, r2
             0x00080822: 3e f8 ec cf: remu (l3r)      r3, r3, r2
             0x00080826: 01 f0 61 7f: ldaw (lu6)      r11, cp[0x61]
             0x0008082a: bf 89:       ld8u (3r)       r3, r11[r3]
             0x0008082c: f1 f8 ec 8f: st8 (l3r)       r3, r4[r1]
             0x00080830: 15 90:       add (2rus)      r1, r1, 0x1
             0x00080832: f4 90:       add (2rus)      r3, r5, 0x0
             0x00080834: 4c 75:       bt (ru6)        r5, -0xc <.label57>
             0x00080836: 00 b0:       eq (2rus)       r0, r0, 0x0
             0x00080838: 21 18:       sub (3r)        r2, r0, r1
             0x0008083a: 01 73:       bu (u6)         0x1 <.label58>
.label56     0x0008083c: 20 b0:       eq (2rus)       r2, r0, 0x0
.label58     0x0008083e: 19 a7:       mkmsk (rus)     r6, 0x1
             0x00080840: 4a c2:       lss (3r)        r0, r2, r6
             0x00080842: 06 70:       bt (ru6)        r0, 0x6 <.label59>
             0x00080844: 59 10:       add (3r)        r5, r2, r1
             0x00080846: c1 10:       add (3r)        r0, r4, r1
             0x00080848: 70 68:       ldc (ru6)       r1, 0x30
             0x0008084a: 00 f0 d1 d0: bl (lu10)       0xd1 <memset>
             0x0008084e: 01 73:       bu (u6)         0x1 <.label60>
.label59     0x00080850: 54 90:       add (2rus)      r5, r1, 0x0
.label60     0x00080852: c5 98:       sub (2rus)      r0, r5, 0x1
             0x00080854: 52 c2:       lss (3r)        r1, r0, r6
             0x00080856: 4d 70:       bt (ru6)        r1, 0xd <.label61>
             0x00080858: d4 a6:       mkmsk (rus)     r1, 0x20
.label62     0x0008085a: 22 13:       add (3r)        r2, r4, r6
             0x0008085c: 39 88:       ld8u (3r)       r3, r2[r1]
             0x0008085e: 70 89:       ld8u (3r)       r11, r4[r0]
             0x00080860: b9 f8 ec 8f: st8 (l3r)       r11, r2[r1]
             0x00080864: f0 f8 ec 8f: st8 (l3r)       r3, r4[r0]
             0x00080868: 01 98:       sub (2rus)      r0, r0, 0x1
             0x0008086a: e9 90:       add (2rus)      r2, r6, 0x1
             0x0008086c: f8 c0:       lss (3r)        r3, r6, r0
             0x0008086e: 68 90:       add (2rus)      r6, r2, 0x0
             0x00080870: cc 74:       bt (ru6)        r3, -0xc <.label62>
.label61     0x00080872: c4 90:       add (2rus)      r0, r5, 0x0
             0x00080874: 84 5d:       ldw (ru6)       r6, sp[0x4]
             0x00080876: 05 f9 ec ef: ldd (l2rus)     r5, r4, sp[0x1]
             0x0008087a: c6 77:       retsp (u6)      0x6

<_ZN2XC6microsEv>:
<XC_USE_TIMER_END>:
<XC_USE_CHANEND_END>:
             0x0008087c: 00 f0 40 77: entsp (lu6)     0x0
             0x00080880: ee 17:       get (0r)        r11, id
             0x00080882: 8d 91:       add (2rus)      r0, r11, 0x1
.label63     0x00080884: 00 f0 6d 58: ldw (lru6)      r1, dp[0x2d]
             0x00080888: 43 74:       bt (ru6)        r1, -0x3 <.label63>
             0x0008088a: 00 f0 2d 50: stw (lru6)      r0, dp[0x2d]
             0x0008088e: ff 17:       nop (0r)        
             0x00080890: ff 17:       nop (0r)        
             0x00080892: ff 17:       nop (0r)        
             0x00080894: ff 17:       nop (0r)        
             0x00080896: ff 17:       nop (0r)        
             0x00080898: ff 17:       nop (0r)        
             0x0008089a: ff 17:       nop (0r)        
             0x0008089c: 00 f0 6d 58: ldw (lru6)      r1, dp[0x2d]
             0x000808a0: 14 30:       eq (3r)         r1, r1, r0
             0x000808a2: 50 7c:       bf (ru6)        r1, -0x10 <.label63>
             0x000808a4: 00 f0 22 60: ldaw (lru6)     r0, dp[0x22]
             0x000808a8: 20 f8 f1 27: ldd (l3rus)     r1, r2, r0[0x0]
             0x000808ac: e3 8f:       gettime (1r)    r3
             0x000808ae: 3e 18:       sub (3r)        r3, r3, r2
             0x000808b0: 5d a7:       mkmsk (rus)     r11, 0x1
             0x000808b2: 9f fc f2 07: maccu (l4r)     r1, r2, r3, r11
             0x000808b6: 20 f8 f1 17: std (l3rus)     r1, r2, r0[0x0]
             0x000808ba: 00 68:       ldc (ru6)       r0, 0x0
             0x000808bc: 00 f0 2d 50: stw (lru6)      r0, dp[0x2d]
             0x000808c0: 00 f0 d0 58: ldw (lru6)      r3, dp[0x10]
             0x000808c4: bb f8 20 00: lmul (l6r)      r11, r2, r2, r3, r0, r0
             0x000808c8: 17 f8 83 04: lmul (l6r)      r1, r0, r1, r3, r0, r11
             0x000808cc: c0 77:       retsp (u6)      0x0
             0x000808ce: 00 00:       stw (2rus)      r0, r0[0x0]

<__dtor_XCPortUndefined>:
             0x000808d0: 00 f0 40 77: entsp (lu6)     0x0
             0x000808d4: 00 f0 24 58: ldw (lru6)      r0, dp[0x24]
             0x000808d8: 01 78:       bf (ru6)        r0, 0x1 <.label64>
             0x000808da: 00 e8:       setc (ru6)      res[r0], 0x0
.label64     0x000808dc: c0 77:       retsp (u6)      0x0
             0x000808de: 00 00:       stw (2rus)      r0, r0[0x0]

<_GLOBAL__sub_I_XC_core.cpp>:
             0x000808e0: 00 f0 44 77: entsp (lu6)     0x4
             0x000808e4: 05 f9 ec f7: std (l2rus)     r5, r4, sp[0x1]
             0x000808e8: 00 69:       ldc (ru6)       r4, 0x0
             0x000808ea: 00 f0 2d 51: stw (lru6)      r4, dp[0x2d]
             0x000808ee: 00 f0 24 51: stw (lru6)      r4, dp[0x24]
             0x000808f2: 00 f0 64 61: ldaw (lru6)     r5, dp[0x24]
             0x000808f6: 00 f0 15 dc: ldap (lu10)     r11, -0x15 <__dtor_XCPortUndefined>
             0x000808fa: 8c 91:       add (2rus)      r0, r11, 0x0
             0x000808fc: 00 f0 ac d1: bl (lu10)       0x1ac <atexit>
             0x00080900: 00 f0 66 51: stw (lru6)      r5, dp[0x26]
             0x00080904: 00 f0 27 51: stw (lru6)      r4, dp[0x27]
             0x00080908: 00 f0 2e 51: stw (lru6)      r4, dp[0x2e]
             0x0008090c: 00 f0 28 51: stw (lru6)      r4, dp[0x28]
             0x00080910: 00 f0 29 51: stw (lru6)      r4, dp[0x29]
             0x00080914: 00 f0 2a 51: stw (lru6)      r4, dp[0x2a]
             0x00080918: 00 f0 2b 51: stw (lru6)      r4, dp[0x2b]
             0x0008091c: 05 f9 ec ef: ldd (l2rus)     r5, r4, sp[0x1]
             0x00080920: c4 77:       retsp (u6)      0x4

<main>:
.label7      0x00080922: 42 77:       entsp (u6)      0x2
.label65     0x00080924: c2 86:       getr (rus)      r0, 0x2
             0x00080926: 02 74:       bt (ru6)        r0, -0x2 <.label65>
             0x00080928: 7c f0 02 68: ldc (lru6)      r0, 0x1f02
             0x0008092c: 01 f0 d3 6e: ldw (lru6)      r11, cp[0x53]
             0x00080930: 5c 17:       setd (r2r)      res[r0], r11
             0x00080932: d1 4e:       outct (rus)     res[r0], 0x1
             0x00080934: d1 ce:       chkct (rus)     res[r0], 0x1
             0x00080936: 00 f0 40 58: ldw (lru6)      r1, dp[0x0]
             0x0008093a: 41 e8:       setc (ru6)      res[r1], 0x1
             0x0008093c: c9 b6:       in (2r)         r2, res[r1]
             0x0008093e: ed 07:       clre (0r)       
             0x00080940: ca 6a:       ldc (ru6)       r11, 0xa
             0x00080942: ab 14:       add (3r)        r2, r2, r11
             0x00080944: 49 e8:       setc (ru6)      res[r1], 0x9
             0x00080946: d9 16:       setd (r2r)      res[r1], r2
             0x00080948: 09 d8:       ldap (u10)      r11, 0x9 <.label66>
             0x0008094a: f1 47:       setv (1r)       res[r1], r11
             0x0008094c: 06 d8:       ldap (u10)      r11, 0x6 <.label67>
             0x0008094e: f0 47:       setv (1r)       res[r0], r11
             0x00080950: 41 7b:       setsr (u6)      0x1
             0x00080952: f0 07:       eeu (1r)        res[r0]
             0x00080954: ff 17:       nop (0r)        
             0x00080956: f1 07:       eeu (1r)        res[r1]
             0x00080958: ec 07:       waiteu (0r)     
.label67     0x0008095a: d1 ce:       chkct (rus)     res[r0], 0x1
.label66     0x0008095c: 02 68:       ldc (ru6)       r0, 0x2
             0x0008095e: 41 68:       ldc (ru6)       r1, 0x1
             0x00080960: 00 f0 40 7f: ldaw (lu6)      r11, cp[0x0]
.label68     0x00080964: 15 98:       sub (2rus)      r1, r1, 0x1
             0x00080966: ad 49:       ldw (3r)        r2, r11[r1]
             0x00080968: d8 16:       setd (r2r)      res[r0], r2
             0x0008096a: d0 0e:       outt (r2r)      res[r0], r0
             0x0008096c: d1 4e:       outct (rus)     res[r0], 0x1
             0x0008096e: 46 74:       bt (ru6)        r1, -0x6 <.label68>
             0x00080970: 05 68:       ldc (ru6)       r0, 0x5
             0x00080972: 00 f0 35 d1: bl (lu10)       0x135 <delay_ticks>
             0x00080976: 00 f0 41 7f: ldaw (lu6)      r11, cp[0x1]
             0x0008097a: 00 68:       ldc (ru6)       r0, 0x0
             0x0008097c: 60 68:       ldc (ru6)       r1, 0x20
             0x0008097e: 02 69:       ldc (ru6)       r4, 0x2
.label71     0x00080980: ac 09:       ldw (2rus)      r2, r11[0x0]
             0x00080982: b8 ac:       shr (2rus)      r3, r2, 0x8
             0x00080984: 38 47:       zext (rus)      r2, 0x8
             0x00080986: 58 30:       eq (3r)         r5, r2, r0
             0x00080988: 47 79:       bf (ru6)        r5, 0x7 <.label69>
             0x0008098a: a8 a4:       shl (2rus)      r2, r2, 0x8
             0x0008098c: 68 42:       or (3r)         r2, r2, r4
             0x0008098e: bc a4:       shl (2rus)      r3, r3, 0x8
             0x00080990: 7c 42:       or (3r)         r3, r3, r4
             0x00080992: de 16:       setd (r2r)      res[r2], r3
             0x00080994: 7c 94:       add (2rus)      r11, r11, 0x4
             0x00080996: 03 73:       bu (u6)         0x3 <.label70>
.label69     0x00080998: a0 a4:       shl (2rus)      r2, r0, 0x8
             0x0008099a: 68 42:       or (3r)         r2, r2, r4
             0x0008099c: e2 17:       freer (1r)      res[r2]
.label70     0x0008099e: 01 90:       add (2rus)      r0, r0, 0x1
             0x000809a0: 21 30:       eq (3r)         r2, r0, r1
             0x000809a2: 92 7c:       bf (ru6)        r2, -0x12 <.label71>
             0x000809a4: 01 f0 16 d4: bl (lu10)       -0x416 <__main__main_tile_0>
             0x000809a8: 00 68:       ldc (ru6)       r0, 0x0
             0x000809aa: c2 77:       retsp (u6)      0x2

<_get_cmdline>:
.label6      0x000809ac: 00 f0 40 77: entsp (lu6)     0x0
             0x000809b0: 24 90:       add (2rus)      r2, r1, 0x0
             0x000809b2: 10 90:       add (2rus)      r1, r0, 0x0
             0x000809b4: 0d 68:       ldc (ru6)       r0, 0xd
             0x000809b6: 00 f0 9f d9: ldap (lu10)     r11, 0x19f <_DoSyscall>
             0x000809ba: fb 27:       bau (1r)        r11

<__libc_done>:
.label9      0x000809bc: 00 f0 42 77: entsp (lu6)     0x2
             0x000809c0: 00 68:       ldc (ru6)       r0, 0x0
             0x000809c2: 10 90:       add (2rus)      r1, r0, 0x0
             0x000809c4: 00 f0 9c d1: bl (lu10)       0x19c <__call_exitprocs>
             0x000809c8: 00 f0 a4 d1: bl (lu10)       0x1a4 <_cleanup>
             0x000809cc: 01 f0 75 d4: bl (lu10)       -0x475 <.label72>
             0x000809d0: 00 f0 a6 d1: bl (lu10)       0x1a6 <_done>

<_exit_unlocked>:
.label10     0x000809d4: 00 f0 44 77: entsp (lu6)     0x4
             0x000809d8: 02 55:       stw (ru6)       r4, sp[0x2]
             0x000809da: 40 90:       add (2rus)      r4, r0, 0x0
             0x000809dc: 40 68:       ldc (ru6)       r1, 0x0
             0x000809de: 00 f0 8f d1: bl (lu10)       0x18f <__call_exitprocs>
             0x000809e2: 00 f0 97 d1: bl (lu10)       0x197 <_cleanup>
             0x000809e6: 01 f0 82 d4: bl (lu10)       -0x482 <.label72>
             0x000809ea: c0 90:       add (2rus)      r0, r4, 0x0
             0x000809ec: 00 f0 a0 d1: bl (lu10)       0x1a0 <_exit>

<memset>:
.label2      0x000809f0: 00 f0 c2 6e: ldw (lru6)      r11, cp[0x2]
             0x000809f4: ff 17:       nop (0r)        
             0x000809f6: fb 27:       bau (1r)        r11

<__init_threadlocal_timer>:
.label3      0x000809f8: 00 f0 40 77: entsp (lu6)     0x0
             0x000809fc: c9 86:       getr (rus)      r2, 0x1
             0x000809fe: 00 f0 40 60: ldaw (lru6)     r1, dp[0x0]
             0x00080a02: ee 17:       get (0r)        r11, id
             0x00080a04: a7 fc ec 07: stw (l3r)       r2, r1[r11]
             0x00080a08: c0 77:       retsp (u6)      0x0
             0x00080a0a: 00 00:       stw (2rus)      r0, r0[0x0]

<__free_threadlocal_timer>:
.label13     0x00080a0c: 00 f0 40 77: entsp (lu6)     0x0
             0x00080a10: 00 f0 80 60: ldaw (lru6)     r2, dp[0x0]
             0x00080a14: ee 17:       get (0r)        r11, id
             0x00080a16: ab 4c:       ldw (3r)        r2, r2[r11]
             0x00080a18: e2 17:       freer (1r)      res[r2]
             0x00080a1a: c0 77:       retsp (u6)      0x0

<xscope_lock_init>:
             0x00080a1c: ff 17:       nop (0r)        
             0x00080a1e: 80 7f:       dualentsp (u6)  0x0
             0x00080a20: 81 87:       getr (rus)      r0, 0x5
             0x00080a22: ff 17:       nop (0r)        
             0x00080a24: 00 f0 2f 50: stw (lru6)      r0, dp[0x2f]
             0x00080a28: ff 17:       nop (0r)        
             0x00080a2a: c0 77:       retsp (u6)      0x0

<xscope_lock_deinit>:
             0x00080a2c: ff 17:       nop (0r)        
             0x00080a2e: 80 7f:       dualentsp (u6)  0x0
             0x00080a30: ff 17:       nop (0r)        
             0x00080a32: c0 77:       retsp (u6)      0x0

<xscope_lock_acquire>:
             0x00080a34: ff 17:       nop (0r)        
             0x00080a36: 80 7f:       dualentsp (u6)  0x0
             0x00080a38: 00 f0 6f 58: ldw (lru6)      r1, dp[0x2f]
             0x00080a3c: 00 f0 42 70: bt (lru6)       r1, 0x2 <.label73>
             0x00080a40: 85 87:       getr (rus)      r1, 0x5
             0x00080a42: ff 17:       nop (0r)        
             0x00080a44: 00 f0 6f 50: stw (lru6)      r1, dp[0x2f]
.label73     0x00080a48: c5 b6:       in (2r)         r1, res[r1]
             0x00080a4a: ff 17:       nop (0r)        
             0x00080a4c: ff 17:       nop (0r)        
             0x00080a4e: c0 77:       retsp (u6)      0x0

<xscope_lock_release>:
             0x00080a50: ff 17:       nop (0r)        
             0x00080a52: 80 7f:       dualentsp (u6)  0x0
             0x00080a54: 00 f0 2f 58: ldw (lru6)      r0, dp[0x2f]
             0x00080a58: c0 ae:       out (r2r)       res[r0], r0
             0x00080a5a: ff 17:       nop (0r)        
             0x00080a5c: ff 17:       nop (0r)        
             0x00080a5e: c0 77:       retsp (u6)      0x0

<xscope_get_io_config>:
             0x00080a60: ff 17:       nop (0r)        
             0x00080a62: 80 7f:       dualentsp (u6)  0x0
             0x00080a64: 00 f0 08 58: ldw (lru6)      r0, dp[0x8]
             0x00080a68: ff 17:       nop (0r)        
             0x00080a6a: c0 77:       retsp (u6)      0x0

<xscope_syscall_write>:
             0x00080a6c: 00 f0 40 77: entsp (lu6)     0x0
             0x00080a70: 38 90:       add (2rus)      r3, r2, 0x0
             0x00080a72: 24 90:       add (2rus)      r2, r1, 0x0
             0x00080a74: 10 90:       add (2rus)      r1, r0, 0x0
             0x00080a76: 06 68:       ldc (ru6)       r0, 0x6
             0x00080a78: 05 f0 3e 73: bu (lu6)        0x17e <_DoSyscallErrno>

<xscope_user_init>:
             0x00080a7c: ff 17:       nop (0r)        
             0x00080a7e: 80 7f:       dualentsp (u6)  0x0
             0x00080a80: ff 17:       nop (0r)        
             0x00080a82: c0 77:       retsp (u6)      0x0

<xscope_constructor>:
             0x00080a84: ff 17:       nop (0r)        
             0x00080a86: 86 7f:       dualentsp (u6)  0x6
             0x00080a88: 05 f9 ec f7: std (l2rus)     r5, r4, sp[0x1]
             0x00080a8c: ff 17:       nop (0r)        
             0x00080a8e: 84 55:       stw (ru6)       r6, sp[0x4]
             0x00080a90: 00 f0 96 d0: bl (lu10)       0x96 <get_local_tile_id>
             0x00080a94: 40 90:       add (2rus)      r4, r0, 0x0
             0x00080a96: ff 17:       nop (0r)        
             0x00080a98: 00 f0 c1 d0: bl (lu10)       0xc1 <xscope_gettime_local_timer>
             0x00080a9c: 60 90:       add (2rus)      r6, r0, 0x0
             0x00080a9e: ff 17:       nop (0r)        
             0x00080aa0: 00 f0 c8 d0: bl (lu10)       0xc8 <xscope_start_ref_clock>
             0x00080aa4: 00 f0 23 d4: bl (lu10)       -0x23 <xscope_lock_init>
             0x00080aa8: 00 f0 e8 d0: bl (lu10)       0xe8 <xscope_tx_init>
             0x00080aac: 00 f0 12 78: bf (lru6)       r0, 0x12 <.label74>
             0x00080ab0: 03 f0 09 68: ldc (lru6)      r0, 0xc9
             0x00080ab4: 00 f0 d1 d0: bl (lu10)       0xd1 <xscope_tx_char>
             0x00080ab8: 71 47:       zext (rus)      r4, 0x10
             0x00080aba: ff 17:       nop (0r)        
             0x00080abc: c4 07:       byterev (2r)    r5, r4
             0x00080abe: ff 17:       nop (0r)        
             0x00080ac0: c4 90:       add (2rus)      r0, r5, 0x0
             0x00080ac2: ff 17:       nop (0r)        
             0x00080ac4: 00 f0 d0 d0: bl (lu10)       0xd0 <xscope_tx_int>
             0x00080ac8: 82 07:       byterev (2r)    r0, r6
             0x00080aca: ff 17:       nop (0r)        
             0x00080acc: 00 f0 ce d0: bl (lu10)       0xce <xscope_tx_int>
             0x00080ad0: 00 f0 db d0: bl (lu10)       0xdb <xscope_tx_end>
             0x00080ad4: 00 f0 17 d4: bl (lu10)       -0x17 <xscope_user_init>
             0x00080ad8: 00 f0 0a 58: ldw (lru6)      r0, dp[0xa]
             0x00080adc: 00 f0 0a 78: bf (lru6)       r0, 0xa <.label75>
             0x00080ae0: 67 68:       ldc (ru6)       r1, 0x27
             0x00080ae2: ff 17:       nop (0r)        
             0x00080ae4: 01 f0 99 6c: ldw (lru6)      r2, cp[0x59]
             0x00080ae8: c0 90:       add (2rus)      r0, r4, 0x0
             0x00080aea: ff 17:       nop (0r)        
             0x00080aec: 00 f0 66 d0: bl (lu10)       0x66 <write_pswitch_reg>
             0x00080af0: 11 a7:       mkmsk (rus)     r4, 0x1
             0x00080af2: ff 17:       nop (0r)        
             0x00080af4: 00 f0 05 73: bu (lu6)        0x5 <.label76>
.label74     0x00080af8: 00 f0 d8 d0: bl (lu10)       0xd8 <xscope_tx_deinit>
             0x00080afc: 00 f0 b8 d0: bl (lu10)       0xb8 <xscope_stop_ref_clock>
             0x00080b00: 00 f0 36 d4: bl (lu10)       -0x36 <xscope_lock_deinit>
             0x00080b04: 00 f0 14 73: bu (lu6)        0x14 <.label77>
.label75     0x00080b08: 00 69:       ldc (ru6)       r4, 0x0
             0x00080b0a: ff 17:       nop (0r)        
.label76     0x00080b0c: 03 f0 0b 68: ldc (lru6)      r0, 0xcb
             0x00080b10: 00 f0 ba d0: bl (lu10)       0xba <xscope_tx_char>
             0x00080b14: c4 90:       add (2rus)      r0, r5, 0x0
             0x00080b16: ff 17:       nop (0r)        
             0x00080b18: 00 f0 bb d0: bl (lu10)       0xbb <xscope_tx_int>
             0x00080b1c: 00 68:       ldc (ru6)       r0, 0x0
             0x00080b1e: ff 17:       nop (0r)        
             0x00080b20: 00 f0 b9 d0: bl (lu10)       0xb9 <xscope_tx_int>
             0x00080b24: 01 f0 14 6c: ldw (lru6)      r0, cp[0x54]
             0x00080b28: 00 f0 b7 d0: bl (lu10)       0xb7 <xscope_tx_int>
             0x00080b2c: 00 f0 c4 d0: bl (lu10)       0xc4 <xscope_tx_end>
             0x00080b30: 00 f0 ca d0: bl (lu10)       0xca <xscope_tx_deinit>
             0x00080b34: 00 f0 0a 58: ldw (lru6)      r0, dp[0xa]
             0x00080b38: 00 f0 04 78: bf (lru6)       r0, 0x4 <.label78>
             0x00080b3c: 00 f0 03 79: bf (lru6)       r4, 0x3 <.label78>
             0x00080b40: 9c f0 0b 68: ldc (lru6)      r0, 0x270b
.label79     0x00080b44: d4 fe ec 17: get (l2r)       r1, ps[r0]
             0x00080b48: 00 f0 42 74: bt (lru6)       r1, -0x2 <.label79>
.label78     0x00080b4c: 0f f0 28 68: ldc (lru6)      r0, 0x3e8
             0x00080b50: 00 f0 95 d0: bl (lu10)       0x95 <xscope_wait>
             0x00080b54: 00 f0 a2 d0: bl (lu10)       0xa2 <xscope_stop_ref_clock>
.label77     0x00080b58: ff 17:       nop (0r)        
             0x00080b5a: 84 5d:       ldw (ru6)       r6, sp[0x4]
             0x00080b5c: 05 f9 ec ef: ldd (l2rus)     r5, r4, sp[0x1]
             0x00080b60: ff 17:       nop (0r)        
             0x00080b62: c6 77:       retsp (u6)      0x6

<xscope_syscall_data_write>:
             0x00080b64: ff 17:       nop (0r)        
             0x00080b66: 88 7f:       dualentsp (u6)  0x8
             0x00080b68: 05 f9 ec f7: std (l2rus)     r5, r4, sp[0x1]
             0x00080b6c: 2e f9 ec f7: std (l2rus)     r7, r6, sp[0x2]
             0x00080b70: 4c 90:       add (2rus)      r4, r3, 0x0
             0x00080b72: 06 56:       stw (ru6)       r8, sp[0x6]
             0x00080b74: 58 90:       add (2rus)      r5, r2, 0x0
             0x00080b76: 64 90:       add (2rus)      r6, r1, 0x0
             0x00080b78: 70 90:       add (2rus)      r7, r0, 0x0
             0x00080b7a: ff 17:       nop (0r)        
             0x00080b7c: 00 f0 53 d4: bl (lu10)       -0x53 <xscope_lock_acquire>
             0x00080b80: 00 f0 85 d0: bl (lu10)       0x85 <xscope_gettime>
             0x00080b84: 80 90:       add (2rus)      r8, r0, 0x0
             0x00080b86: cc 90:       add (2rus)      r0, r7, 0x0
             0x00080b88: 00 f0 9c d0: bl (lu10)       0x9c <xscope_tx_char>
             0x00080b8c: 90 a7:       mkmsk (rus)     r0, 0x4
             0x00080b8e: ff 17:       nop (0r)        
             0x00080b90: 00 f0 9a d0: bl (lu10)       0x9a <xscope_tx_char>
             0x00080b94: 20 07:       byterev (2r)    r0, r8
             0x00080b96: ff 17:       nop (0r)        
             0x00080b98: 00 f0 9b d0: bl (lu10)       0x9b <xscope_tx_int>
             0x00080b9c: 04 93:       add (2rus)      r0, r5, 0x4
             0x00080b9e: ff 17:       nop (0r)        
             0x00080ba0: c0 06:       byterev (2r)    r0, r0
             0x00080ba2: ff 17:       nop (0r)        
             0x00080ba4: 00 f0 98 d0: bl (lu10)       0x98 <xscope_tx_int>
             0x00080ba8: 82 07:       byterev (2r)    r0, r6
             0x00080baa: ff 17:       nop (0r)        
             0x00080bac: 00 f0 96 d0: bl (lu10)       0x96 <xscope_tx_int>
             0x00080bb0: 00 f0 45 79: bf (lru6)       r5, 0x5 <.label80>
             0x00080bb4: 80 69:       ldc (ru6)       r6, 0x0
             0x00080bb6: ff 17:       nop (0r)        
.label81     0x00080bb8: ff 17:       nop (0r)        
             0x00080bba: 02 8b:       ld8u (3r)       r0, r4[r6]
             0x00080bbc: 00 f0 8f d0: bl (lu10)       0x8f <xscope_tx_char>
             0x00080bc0: 15 99:       sub (2rus)      r5, r5, 0x1
             0x00080bc2: 01 91:       add (2rus)      r4, r4, 0x1
             0x00080bc4: 00 f0 44 75: bt (lru6)       r5, -0x4 <.label81>
.label80     0x00080bc8: 00 f0 9d d0: bl (lu10)       0x9d <xscope_tx_end>
             0x00080bcc: 00 f0 60 d4: bl (lu10)       -0x60 <xscope_lock_release>
             0x00080bd0: ff 17:       nop (0r)        
             0x00080bd2: 06 5e:       ldw (ru6)       r8, sp[0x6]
             0x00080bd4: 2e f9 ec ef: ldd (l2rus)     r7, r6, sp[0x2]
             0x00080bd8: 05 f9 ec ef: ldd (l2rus)     r5, r4, sp[0x1]
             0x00080bdc: ff 17:       nop (0r)        
             0x00080bde: c8 77:       retsp (u6)      0x8

<delay_ticks>:
             0x00080be0: 00 f0 40 77: entsp (lu6)     0x0
             0x00080be4: e1 8f:       gettime (1r)    r1
             0x00080be6: ee 17:       get (0r)        r11, id
             0x00080be8: 00 f0 80 60: ldaw (lru6)     r2, dp[0x0]
             0x00080bec: ab 4c:       ldw (3r)        r2, r2[r11]
             0x00080bee: 30 f8 ec 97: ashr (l2rus)    r3, r0, 0x20
             0x00080bf2: c6 78:       bf (ru6)        r3, 0x6 <.label82>
             0x00080bf4: 01 f0 e0 6c: ldw (lru6)      r3, cp[0x60]
             0x00080bf8: 37 10:       add (3r)        r3, r1, r3
             0x00080bfa: de 16:       setd (r2r)      res[r2], r3
             0x00080bfc: 89 e8:       setc (ru6)      res[r2], 0x9
             0x00080bfe: ce b6:       in (2r)         r3, res[r2]
.label82     0x00080c00: 04 10:       add (3r)        r0, r1, r0
             0x00080c02: d2 16:       setd (r2r)      res[r2], r0
             0x00080c04: 89 e8:       setc (ru6)      res[r2], 0x9
             0x00080c06: c2 b6:       in (2r)         r0, res[r2]
             0x00080c08: c0 77:       retsp (u6)      0x0
             0x00080c0a: 00 00:       stw (2rus)      r0, r0[0x0]

<__start_other_cores>:
             0x00080c0c: 00 f0 44 77: entsp (lu6)     0x4
             0x00080c10: 01 55:       stw (ru6)       r4, sp[0x1]
             0x00080c12: 42 55:       stw (ru6)       r5, sp[0x2]
             0x00080c14: ed 07:       clre (0r)       
             0x00080c16: 07 87:       getr (rus)      r5, 0x3
             0x00080c18: 44 08:       ldw (2rus)      r4, r1[0x0]
             0x00080c1a: 80 64:       ldaw (ru6)      r2, sp[0x0]
.label83     0x00080c1c: 00 f0 24 d9: ldap (lu10)     r11, 0x124 <__start_core>
             0x00080c20: 9d 07:       getst (2r)      r3, res[r5]
             0x00080c22: 5f ff ec 07: init (l2r)      t[r3]:pc, r11
             0x00080c26: 03 f8 ec b7: set (l3r)       t[r3]:r0, r0
             0x00080c2a: d3 f8 ec b7: set (l3r)       t[r3]:r1, r4
             0x00080c2e: 45 08:       ldw (2rus)      r4, r1[0x1]
             0x00080c30: 01 91:       add (2rus)      r4, r4, 0x1
             0x00080c32: c1 6a:       ldc (ru6)       r11, 0x1
             0x00080c34: f3 3d:       and (3r)        r11, r4, r11
             0x00080c36: 83 15:       add (3r)        r4, r4, r11
             0x00080c38: 02 a1:       shl (2rus)      r4, r4, 0x2
             0x00080c3a: 68 1a:       sub (3r)        r2, r2, r4
             0x00080c3c: cb fe ec 07: init (l2r)      t[r3]:sp, r2
             0x00080c40: 94 94:       add (2rus)      r1, r1, 0x8
             0x00080c42: 44 08:       ldw (2rus)      r4, r1[0x0]
             0x00080c44: 15 75:       bt (ru6)        r4, -0x15 <.label83>
             0x00080c46: f5 1f:       msync (1r)      res[r5]
             0x00080c48: b5 08:       ldw (2rus)      r11, r1[0x1]
             0x00080c4a: eb 27:       bla (1r)        r11
             0x00080c4c: f5 17:       mjoin (1r)      res[r5]
             0x00080c4e: e5 17:       freer (1r)      res[r5]
             0x00080c50: 01 5d:       ldw (ru6)       r4, sp[0x1]
             0x00080c52: 42 5d:       ldw (ru6)       r5, sp[0x2]
             0x00080c54: c4 77:       retsp (u6)      0x4
             0x00080c56: 00 00:       stw (2rus)      r0, r0[0x0]

<atexit>:
             0x00080c58: 00 f0 42 77: entsp (lu6)     0x2
             0x00080c5c: 10 90:       add (2rus)      r1, r0, 0x0
             0x00080c5e: 00 68:       ldc (ru6)       r0, 0x0
             0x00080c60: 20 90:       add (2rus)      r2, r0, 0x0
             0x00080c62: 30 90:       add (2rus)      r3, r0, 0x0
             0x00080c64: 00 f0 0c d1: bl (lu10)       0x10c <__register_exitproc>
             0x00080c68: c2 77:       retsp (u6)      0x2
             0x00080c6a: 00 00:       stw (2rus)      r0, r0[0x0]

<strlen>:
             0x00080c6c: 00 f0 40 77: entsp (lu6)     0x0
             0x00080c70: 21 98:       sub (2rus)      r2, r0, 0x1
             0x00080c72: d5 a6:       mkmsk (rus)     r1, 0x1
.label84     0x00080c74: 39 90:       add (2rus)      r3, r2, 0x1
             0x00080c76: b9 88:       ld8u (3r)       r11, r2[r1]
             0x00080c78: 2c 90:       add (2rus)      r2, r3, 0x0
             0x00080c7a: c4 76:       bt (ru6)        r11, -0x4 <.label84>
             0x00080c7c: 0c 18:       sub (3r)        r0, r3, r0
             0x00080c7e: c0 77:       retsp (u6)      0x0

<memcpy>:
<__memcpy_4>:
             0x00080c80: 00 f0 c3 6e: ldw (lru6)      r11, cp[0x3]
             0x00080c84: ff 17:       nop (0r)        
             0x00080c86: fb 27:       bau (1r)        r11

<write_pswitch_reg>:
             0x00080c88: 00 f0 40 77: entsp (lu6)     0x0
             0x00080c8c: 08 f3 cc 68: ldc (lru6)      r3, 0xc20c
             0x00080c90: c1 6a:       ldc (ru6)       r11, 0x1
             0x00080c92: 00 f0 01 73: bu (lu6)        0x1 <write_switch_reg>
             0x00080c96: 00 00:       stw (2rus)      r0, r0[0x0]

<write_switch_reg>:
             0x00080c98: 00 f0 40 77: entsp (lu6)     0x0
             0x00080c9c: 00 55:       stw (ru6)       r4, sp[0x0]
             0x00080c9e: c1 ac:       shr (2rus)      r4, r0, 0x10
             0x00080ca0: 1e 71:       bt (ru6)        r4, 0x1e <write_switch_reg_return_0>
             0x00080ca2: c5 ac:       shr (2rus)      r4, r1, 0x10
             0x00080ca4: 1c 71:       bt (ru6)        r4, 0x1c <write_switch_reg_return_0>
             0x00080ca6: 81 a4:       shl (2rus)      r0, r0, 0x10
             0x00080ca8: 03 40:       or (3r)         r0, r0, r3
             0x00080caa: 02 87:       getr (rus)      r4, 0x2
             0x00080cac: 90 17:       setd (r2r)      res[r4], r0
             0x00080cae: 03 f0 c0 68: ldc (lru6)      r3, 0xc0
             0x00080cb2: 03 4f:       outct (2r)      res[r4], r3
             0x00080cb4: c3 7a:       bf (ru6)        r11, 0x3 <build_return_no_ack>
             0x00080cb6: 40 ad:       shr (2rus)      r0, r4, 0x8
             0x00080cb8: 80 a4:       shl (2rus)      r0, r0, 0x8
             0x00080cba: 04 73:       bu (u6)         0x4 <write_switch_reg_send>

<build_return_no_ack>:
             0x00080cbc: 80 ac:       shr (2rus)      r0, r0, 0x8
             0x00080cbe: 3c a7:       mkmsk (rus)     r3, 0x8
             0x00080cc0: 03 40:       or (3r)         r0, r0, r3
             0x00080cc2: 80 a4:       shl (2rus)      r0, r0, 0x8

<write_switch_reg_send>:
             0x00080cc4: b4 ac:       shr (2rus)      r3, r1, 0x8
             0x00080cc6: 03 40:       or (3r)         r0, r0, r3
             0x00080cc8: 80 af:       out (r2r)       res[r4], r0
             0x00080cca: 94 0f:       outt (r2r)      res[r4], r1
             0x00080ccc: 88 af:       out (r2r)       res[r4], r2
             0x00080cce: 11 4f:       outct (rus)     res[r4], 0x1
             0x00080cd0: c9 7a:       bf (ru6)        r11, 0x9 <write_switch_reg_free_and_return_1>
             0x00080cd2: 90 87:       inct (2r)       r0, res[r4]
             0x00080cd4: 03 b0:       eq (2rus)       r0, r0, 0x3
             0x00080cd6: 11 cf:       chkct (rus)     res[r4], 0x1
             0x00080cd8: e4 17:       freer (1r)      res[r4]
             0x00080cda: 00 5d:       ldw (ru6)       r4, sp[0x0]
             0x00080cdc: c0 77:       retsp (u6)      0x0

<write_switch_reg_return_0>:
             0x00080cde: 00 68:       ldc (ru6)       r0, 0x0
             0x00080ce0: 00 5d:       ldw (ru6)       r4, sp[0x0]
             0x00080ce2: c0 77:       retsp (u6)      0x0

<write_switch_reg_free_and_return_1>:
             0x00080ce4: e4 17:       freer (1r)      res[r4]
             0x00080ce6: 01 68:       ldc (ru6)       r0, 0x1
             0x00080ce8: 00 5d:       ldw (ru6)       r4, sp[0x0]
             0x00080cea: c0 77:       retsp (u6)      0x0

<get_local_tile_id>:
             0x00080cec: 00 f0 40 77: entsp (lu6)     0x0
             0x00080cf0: 00 f2 02 68: ldc (lru6)      r0, 0x8002
             0x00080cf4: c0 77:       retsp (u6)      0x0
             0x00080cf6: 00 00:       stw (2rus)      r0, r0[0x0]

<_DoSyscall>:
             0x00080cf8: 00 f0 40 77: entsp (lu6)     0x0
             0x00080cfc: d0 a6:       mkmsk (rus)     r0, 0x20
             0x00080cfe: c0 77:       retsp (u6)      0x0

<__call_exitprocs>:
             0x00080d00: 00 f0 42 77: entsp (lu6)     0x2
             0x00080d04: 00 f0 0c d1: bl (lu10)       0x10c <__call_exitprocs_impl>
             0x00080d08: c2 77:       retsp (u6)      0x2
             0x00080d0a: 00 00:       stw (2rus)      r0, r0[0x0]

<_cleanup_impl>:
             0x00080d0c: 00 f0 40 77: entsp (lu6)     0x0
             0x00080d10: c0 77:       retsp (u6)      0x0
             0x00080d12: 00 00:       stw (2rus)      r0, r0[0x0]

<_cleanup>:
             0x00080d14: 00 f0 42 77: entsp (lu6)     0x2
             0x00080d18: 00 f0 08 d4: bl (lu10)       -0x8 <_cleanup_impl>
             0x00080d1c: c2 77:       retsp (u6)      0x2
             0x00080d1e: 00 00:       stw (2rus)      r0, r0[0x0]

<_done>:
             0x00080d20: 00 f0 40 77: entsp (lu6)     0x0
             0x00080d24: 07 68:       ldc (ru6)       r0, 0x7
             0x00080d26: 00 f0 19 d4: bl (lu10)       -0x19 <_DoSyscall>
             0x00080d2a: ed 07:       clre (0r)       
             0x00080d2c: ec 07:       waiteu (0r)     
             0x00080d2e: 00 00:       stw (2rus)      r0, r0[0x0]

<_exit>:
             0x00080d30: 00 f0 40 77: entsp (lu6)     0x0
             0x00080d34: 10 90:       add (2rus)      r1, r0, 0x0
             0x00080d36: 00 68:       ldc (ru6)       r0, 0x0
             0x00080d38: 00 f0 22 d4: bl (lu10)       -0x22 <_DoSyscall>
             0x00080d3c: ed 07:       clre (0r)       
             0x00080d3e: ec 07:       waiteu (0r)     

<__alloc_libc_hwlock>:
.label12     0x00080d40: 00 f0 40 77: entsp (lu6)     0x0
             0x00080d44: 81 87:       getr (rus)      r0, 0x5
             0x00080d46: 00 f0 30 50: stw (lru6)      r0, dp[0x30]
             0x00080d4a: c0 77:       retsp (u6)      0x0

<__lock_fair_acquire>:
             0x00080d4c: 00 f0 40 77: entsp (lu6)     0x0
             0x00080d50: 00 f0 70 58: ldw (lru6)      r1, dp[0x30]
             0x00080d54: c5 b6:       in (2r)         r1, res[r1]
             0x00080d56: 10 08:       ldw (2rus)      r1, r0[0x0]
             0x00080d58: 25 90:       add (2rus)      r2, r1, 0x1
             0x00080d5a: 20 00:       stw (2rus)      r2, r0[0x0]
             0x00080d5c: 00 f0 b0 58: ldw (lru6)      r2, dp[0x30]
             0x00080d60: ca ae:       out (r2r)       res[r2], r2
.label85     0x00080d62: 21 08:       ldw (2rus)      r2, r0[0x1]
             0x00080d64: 29 30:       eq (3r)         r2, r2, r1
             0x00080d66: 83 7c:       bf (ru6)        r2, -0x3 <.label85>
             0x00080d68: c0 77:       retsp (u6)      0x0
             0x00080d6a: 00 00:       stw (2rus)      r0, r0[0x0]

<__lock_fair_release>:
             0x00080d6c: 00 f0 40 77: entsp (lu6)     0x0
             0x00080d70: 11 08:       ldw (2rus)      r1, r0[0x1]
             0x00080d72: 15 90:       add (2rus)      r1, r1, 0x1
             0x00080d74: 11 00:       stw (2rus)      r1, r0[0x1]
             0x00080d76: c0 77:       retsp (u6)      0x0

<_DoSyscallErrno>:
             0x00080d78: 00 f0 42 77: entsp (lu6)     0x2
             0x00080d7c: 00 f0 44 d4: bl (lu10)       -0x44 <_DoSyscall>
             0x00080d80: c4 8e:       not (2r)        r1, r0
             0x00080d82: 57 aa:       shr (2rus)      r1, r1, 0x7
             0x00080d84: 41 78:       bf (ru6)        r1, 0x1 <.label86>
             0x00080d86: c2 77:       retsp (u6)      0x2
.label86     0x00080d88: c4 96:       neg (2r)        r1, r0
             0x00080d8a: 41 54:       stw (ru6)       r1, sp[0x1]
             0x00080d8c: 00 f0 2e d1: bl (lu10)       0x12e <__errno>
             0x00080d90: 41 5c:       ldw (ru6)       r1, sp[0x1]
             0x00080d92: 10 00:       stw (2rus)      r1, r0[0x0]
             0x00080d94: d0 a6:       mkmsk (rus)     r0, 0x20
             0x00080d96: c2 77:       retsp (u6)      0x2

<xscope_gettime>:
             0x00080d98: e0 8f:       gettime (1r)    r0
             0x00080d9a: 80 7f:       dualentsp (u6)  0x0
             0x00080d9c: ff 17:       nop (0r)        
             0x00080d9e: c0 77:       retsp (u6)      0x0

<xscope_gettime_local_timer>:
             0x00080da0: e0 8f:       gettime (1r)    r0
             0x00080da2: 80 7f:       dualentsp (u6)  0x0
             0x00080da4: ff 17:       nop (0r)        
             0x00080da6: c0 77:       retsp (u6)      0x0

<xscope_wait>:
             0x00080da8: c5 86:       getr (rus)      r1, 0x1
             0x00080daa: 80 7f:       dualentsp (u6)  0x0
             0x00080dac: e2 8f:       gettime (1r)    r2
             0x00080dae: ff 17:       nop (0r)        
             0x00080db0: 08 10:       add (3r)        r0, r2, r0
             0x00080db2: ff 17:       nop (0r)        
             0x00080db4: d1 16:       setd (r2r)      res[r1], r0
             0x00080db6: ff 17:       nop (0r)        
             0x00080db8: 49 e8:       setc (ru6)      res[r1], 0x9
             0x00080dba: ff 17:       nop (0r)        
             0x00080dbc: c1 b6:       in (2r)         r0, res[r1]
             0x00080dbe: ff 17:       nop (0r)        
             0x00080dc0: e1 17:       freer (1r)      res[r1]
             0x00080dc2: c0 77:       retsp (u6)      0x0

<xscope_start_ref_clock>:
             0x00080dc4: ff 17:       nop (0r)        
             0x00080dc6: 80 7f:       dualentsp (u6)  0x0
             0x00080dc8: 00 f0 12 58: ldw (lru6)      r0, dp[0x12]
             0x00080dcc: 48 68:       ldc (ru6)       r1, 0x8
             0x00080dce: ff 17:       nop (0r)        
             0x00080dd0: d1 fe ec 2f: setc (l2r)      res[r0], r1
             0x00080dd4: 94 a7:       mkmsk (rus)     r1, 0x4
             0x00080dd6: ff 17:       nop (0r)        
             0x00080dd8: d1 fe ec 2f: setc (l2r)      res[r0], r1
             0x00080ddc: 00 68:       ldc (ru6)       r0, 0x0
             0x00080dde: c0 77:       retsp (u6)      0x0

<xscope_stop_ref_clock>:
             0x00080de0: ff 17:       nop (0r)        
             0x00080de2: 80 7f:       dualentsp (u6)  0x0
             0x00080de4: 00 f0 52 58: ldw (lru6)      r1, dp[0x12]
             0x00080de8: d3 a6:       mkmsk (rus)     r0, 0x3
             0x00080dea: ff 17:       nop (0r)        
             0x00080dec: d4 fe ec 2f: setc (l2r)      res[r1], r0
             0x00080df0: 00 68:       ldc (ru6)       r0, 0x0
             0x00080df2: ff 17:       nop (0r)        
             0x00080df4: d4 fe ec 2f: setc (l2r)      res[r1], r0
             0x00080df8: ff 17:       nop (0r)        
             0x00080dfa: c0 77:       retsp (u6)      0x0

<xscope_tx_char>:
             0x00080dfc: ff 17:       nop (0r)        
             0x00080dfe: 82 7f:       dualentsp (u6)  0x2
             0x00080e00: 00 f0 7e d0: bl (lu10)       0x7e <xscope_xlink_put_ch>
             0x00080e04: ff 17:       nop (0r)        
             0x00080e06: c2 77:       retsp (u6)      0x2

<xscope_tx_int>:
             0x00080e08: ff 17:       nop (0r)        
             0x00080e0a: 84 7f:       dualentsp (u6)  0x4
             0x00080e0c: 40 90:       add (2rus)      r4, r0, 0x0
             0x00080e0e: 02 55:       stw (ru6)       r4, sp[0x2]
             0x00080e10: 30 47:       zext (rus)      r0, 0x8
             0x00080e12: ff 17:       nop (0r)        
             0x00080e14: 00 f0 79 d0: bl (lu10)       0x79 <xscope_xlink_put_ch>
             0x00080e18: 40 ad:       shr (2rus)      r0, r4, 0x8
             0x00080e1a: ff 17:       nop (0r)        
             0x00080e1c: 30 47:       zext (rus)      r0, 0x8
             0x00080e1e: ff 17:       nop (0r)        
             0x00080e20: 00 f0 76 d0: bl (lu10)       0x76 <xscope_xlink_put_ch>
             0x00080e24: 41 ad:       shr (2rus)      r0, r4, 0x10
             0x00080e26: ff 17:       nop (0r)        
             0x00080e28: 30 47:       zext (rus)      r0, 0x8
             0x00080e2a: ff 17:       nop (0r)        
             0x00080e2c: 00 f0 73 d0: bl (lu10)       0x73 <xscope_xlink_put_ch>
             0x00080e30: 42 ad:       shr (2rus)      r0, r4, 0x18
             0x00080e32: ff 17:       nop (0r)        
             0x00080e34: 00 f0 71 d0: bl (lu10)       0x71 <xscope_xlink_put_ch>
             0x00080e38: ff 17:       nop (0r)        
             0x00080e3a: 02 5d:       ldw (ru6)       r4, sp[0x2]
             0x00080e3c: ff 17:       nop (0r)        
             0x00080e3e: c4 77:       retsp (u6)      0x4

<xscope_tx_end>:
             0x00080e40: ff 17:       nop (0r)        
             0x00080e42: 82 7f:       dualentsp (u6)  0x2
             0x00080e44: 00 f0 82 d0: bl (lu10)       0x82 <xscope_xlink_put_ct>
             0x00080e48: ff 17:       nop (0r)        
             0x00080e4a: c2 77:       retsp (u6)      0x2

<xscope_tx_init>:
             0x00080e4c: ff 17:       nop (0r)        
             0x00080e4e: 82 7f:       dualentsp (u6)  0x2
             0x00080e50: 00 f0 73 d0: bl (lu10)       0x73 <xscope_xlink_init>
             0x00080e54: 00 f0 83 d0: bl (lu10)       0x83 <xscope_xlink_start_token>
             0x00080e58: d1 a6:       mkmsk (rus)     r0, 0x1
             0x00080e5a: c2 77:       retsp (u6)      0x2

<xscope_tx_deinit>:
             0x00080e5c: ff 17:       nop (0r)        
             0x00080e5e: 82 7f:       dualentsp (u6)  0x2
             0x00080e60: 00 f0 75 d0: bl (lu10)       0x75 <xscope_xlink_deinit>
             0x00080e64: ff 17:       nop (0r)        
             0x00080e66: c2 77:       retsp (u6)      0x2

<__start_core>:
             0x00080e68: 00 f0 40 77: entsp (lu6)     0x0
             0x00080e6c: 40 90:       add (2rus)      r4, r0, 0x0
             0x00080e6e: 34 90:       add (2rus)      r3, r1, 0x0
             0x00080e70: 00 f0 3e d6: bl (lu10)       -0x23e <__init_threadlocal_timer>
             0x00080e74: c0 90:       add (2rus)      r0, r4, 0x0
             0x00080e76: e3 27:       bla (1r)        r3
             0x00080e78: 00 f0 38 d6: bl (lu10)       -0x238 <__free_threadlocal_timer>
             0x00080e7c: ee 07:       ssync (0r)      
             0x00080e7e: 00 00:       stw (2rus)      r0, r0[0x0]

<__register_exitproc>:
             0x00080e80: 00 f0 48 77: entsp (lu6)     0x8
             0x00080e84: 05 f9 ec f7: std (l2rus)     r5, r4, sp[0x1]
             0x00080e88: 2e f9 ec f7: std (l2rus)     r7, r6, sp[0x2]
             0x00080e8c: 06 56:       stw (ru6)       r8, sp[0x6]
             0x00080e8e: 5c 90:       add (2rus)      r5, r3, 0x0
             0x00080e90: 78 90:       add (2rus)      r7, r2, 0x0
             0x00080e92: 44 90:       add (2rus)      r4, r1, 0x0
             0x00080e94: 60 90:       add (2rus)      r6, r0, 0x0
             0x00080e96: 01 f0 45 7f: ldaw (lu6)      r11, cp[0x45]
             0x00080e9a: 9c 91:       add (2rus)      r1, r11, 0x0
             0x00080e9c: 01 f0 48 7f: ldaw (lu6)      r11, cp[0x48]
             0x00080ea0: c0 90:       add (2rus)      r0, r4, 0x0
             0x00080ea2: ac 91:       add (2rus)      r2, r11, 0x0
             0x00080ea4: 00 f0 ec d0: bl (lu10)       0xec <__checkFptrGroup>
             0x00080ea8: e0 4f:       ecallf (1r)     r0
             0x00080eaa: 02 f0 15 60: ldaw (lru6)     r0, dp[0x95]
             0x00080eae: 00 f0 b3 d4: bl (lu10)       -0xb3 <__lock_fair_acquire>
             0x00080eb2: 00 f0 13 58: ldw (lru6)      r0, dp[0x13]
             0x00080eb6: 11 08:       ldw (2rus)      r1, r0[0x1]
             0x00080eb8: 99 a7:       mkmsk (rus)     r2, 0x5
             0x00080eba: 29 c0:       lss (3r)        r2, r2, r1
             0x00080ebc: 82 78:       bf (ru6)        r2, 0x2 <.label87>
             0x00080ebe: d0 a6:       mkmsk (rus)     r0, 0x20
             0x00080ec0: 29 73:       bu (u6)         0x29 <.label88>
.label87     0x00080ec2: 9e 79:       bf (ru6)        r6, 0x1e <.label89>
             0x00080ec4: 02 f0 88 68: ldc (lru6)      r2, 0x88
             0x00080ec8: 32 10:       add (3r)        r3, r0, r2
             0x00080eca: 7d f8 ec 07: stw (l3r)       r7, r3[r1]
             0x00080ece: 11 08:       ldw (2rus)      r1, r0[0x1]
             0x00080ed0: d9 a6:       mkmsk (rus)     r2, 0x1
             0x00080ed2: b9 20:       shl (3r)        r11, r2, r1
             0x00080ed4: 06 f0 c8 69: ldc (lru6)      r7, 0x188
             0x00080ed8: b3 12:       add (3r)        r7, r0, r7
             0x00080eda: 4c 09:       ldw (2rus)      r8, r7[0x0]
             0x00080edc: b3 46:       or (3r)         r11, r8, r11
             0x00080ede: 7c 01:       stw (2rus)      r11, r7[0x0]
             0x00080ee0: 1d f8 ec 1f: ldaw (l3r)      r1, r3[r1]
             0x00080ee4: 02 f0 c0 68: ldc (lru6)      r3, 0x80
             0x00080ee8: 17 10:       add (3r)        r1, r1, r3
             0x00080eea: 54 00:       stw (2rus)      r5, r1[0x0]
             0x00080eec: 11 08:       ldw (2rus)      r1, r0[0x1]
             0x00080eee: fa b0:       eq (2rus)       r3, r6, 0x2
             0x00080ef0: c7 78:       bf (ru6)        r3, 0x7 <.label89>
             0x00080ef2: 29 20:       shl (3r)        r2, r2, r1
             0x00080ef4: 06 f0 cc 68: ldc (lru6)      r3, 0x18c
             0x00080ef8: 33 10:       add (3r)        r3, r0, r3
             0x00080efa: bc 08:       ldw (2rus)      r11, r3[0x0]
             0x00080efc: ae 41:       or (3r)         r2, r11, r2
             0x00080efe: 2c 00:       stw (2rus)      r2, r3[0x0]
.label89     0x00080f00: 25 90:       add (2rus)      r2, r1, 0x1
             0x00080f02: 21 00:       stw (2rus)      r2, r0[0x1]
             0x00080f04: 01 f8 ec 1f: ldaw (l3r)      r0, r0[r1]
             0x00080f08: 42 00:       stw (2rus)      r4, r0[0x2]
             0x00080f0a: 02 f0 15 60: ldaw (lru6)     r0, dp[0x95]
             0x00080f0e: 00 f0 d3 d4: bl (lu10)       -0xd3 <__lock_fair_release>
             0x00080f12: 00 68:       ldc (ru6)       r0, 0x0
.label88     0x00080f14: 06 5e:       ldw (ru6)       r8, sp[0x6]
             0x00080f16: 2e f9 ec ef: ldd (l2rus)     r7, r6, sp[0x2]
             0x00080f1a: 05 f9 ec ef: ldd (l2rus)     r5, r4, sp[0x1]
             0x00080f1e: c8 77:       retsp (u6)      0x8

<__call_exitprocs_impl>:
             0x00080f20: 00 f0 4e 77: entsp (lu6)     0xe
             0x00080f24: 07 f9 ec f7: std (l2rus)     r5, r4, sp[0x3]
             0x00080f28: 6c fb ec f7: std (l2rus)     r7, r6, sp[0x4]
             0x00080f2c: 45 fc ec f7: std (l2rus)     r9, r8, sp[0x5]
             0x00080f30: 8c 56:       stw (ru6)       r10, sp[0xc]
             0x00080f32: 44 90:       add (2rus)      r4, r1, 0x0
             0x00080f34: 01 54:       stw (ru6)       r0, sp[0x1]
             0x00080f36: 00 f0 13 58: ldw (lru6)      r0, dp[0x13]
             0x00080f3a: 01 f0 0f 78: bf (lru6)       r0, 0x4f <.label90>
             0x00080f3e: 80 6a:       ldc (ru6)       r10, 0x0
.label100    0x00080f40: 80 90:       add (2rus)      r8, r0, 0x0
             0x00080f42: 11 0a:       ldw (2rus)      r9, r8[0x1]
             0x00080f44: d1 a6:       mkmsk (rus)     r0, 0x1
             0x00080f46: 84 c1:       lss (3r)        r0, r9, r0
             0x00080f48: 01 f0 08 70: bt (lru6)       r0, 0x48 <.label90>
             0x00080f4c: 06 f0 08 68: ldc (lru6)      r0, 0x188
             0x00080f50: 80 11:       add (3r)        r0, r8, r0
             0x00080f52: 04 54:       stw (ru6)       r0, sp[0x4]
             0x00080f54: 06 f0 0c 68: ldc (lru6)      r0, 0x18c
             0x00080f58: 80 11:       add (3r)        r0, r8, r0
             0x00080f5a: 03 54:       stw (ru6)       r0, sp[0x3]
             0x00080f5c: 01 fe ec 1f: ldaw (l3r)      r0, r8[r9]
             0x00080f60: 02 f0 44 68: ldc (lru6)      r1, 0x84
             0x00080f64: 11 10:       add (3r)        r1, r0, r1
             0x00080f66: 42 54:       stw (ru6)       r1, sp[0x2]
             0x00080f68: 04 f0 44 68: ldc (lru6)      r1, 0x104
             0x00080f6c: 11 10:       add (3r)        r1, r0, r1
             0x00080f6e: 45 54:       stw (ru6)       r1, sp[0x5]
             0x00080f70: a0 92:       add (2rus)      r6, r0, 0x4
             0x00080f72: f8 91:       add (2rus)      r7, r10, 0x0
.label99     0x00080f74: 04 79:       bf (ru6)        r4, 0x4 <.label91>
             0x00080f76: 05 5c:       ldw (ru6)       r0, sp[0x5]
             0x00080f78: 43 4a:       ldw (3r)        r0, r0[r7]
             0x00080f7a: 40 32:       eq (3r)         r0, r0, r4
             0x00080f7c: 28 78:       bf (ru6)        r0, 0x28 <.label92>
.label91     0x00080f7e: f7 13:       add (3r)        r3, r9, r7
             0x00080f80: 1d 98:       sub (2rus)      r1, r3, 0x1
             0x00080f82: d1 a6:       mkmsk (rus)     r0, 0x1
             0x00080f84: 01 20:       shl (3r)        r0, r0, r1
             0x00080f86: 2b 4b:       ldw (3r)        r2, r6[r7]
             0x00080f88: 31 0a:       ldw (2rus)      r11, r8[0x1]
             0x00080f8a: bf 34:       eq (3r)         r3, r3, r11
             0x00080f8c: c2 78:       bf (ru6)        r3, 0x2 <.label93>
             0x00080f8e: 91 01:       stw (2rus)      r1, r8[0x1]
             0x00080f90: 02 73:       bu (u6)         0x2 <.label94>
.label93     0x00080f92: ab fb ec 07: stw (l3r)       r10, r6[r7]
.label94     0x00080f96: 9b 78:       bf (ru6)        r2, 0x1b <.label92>
             0x00080f98: d8 91:       add (2rus)      r5, r10, 0x0
             0x00080f9a: 21 0a:       ldw (2rus)      r10, r8[0x1]
             0x00080f9c: 44 5c:       ldw (ru6)       r1, sp[0x4]
             0x00080f9e: 14 08:       ldw (2rus)      r1, r1[0x0]
             0x00080fa0: 14 38:       and (3r)        r1, r1, r0
             0x00080fa2: 49 78:       bf (ru6)        r1, 0x9 <.label95>
             0x00080fa4: 43 5c:       ldw (ru6)       r1, sp[0x3]
             0x00080fa6: 14 08:       ldw (2rus)      r1, r1[0x0]
             0x00080fa8: 04 38:       and (3r)        r0, r1, r0
             0x00080faa: 42 5c:       ldw (ru6)       r1, sp[0x2]
             0x00080fac: 57 4a:       ldw (3r)        r1, r1[r7]
             0x00080fae: 05 78:       bf (ru6)        r0, 0x5 <.label96>
             0x00080fb0: 04 90:       add (2rus)      r0, r1, 0x0
             0x00080fb2: e2 27:       bla (1r)        r2
             0x00080fb4: 04 73:       bu (u6)         0x4 <.label97>
.label95     0x00080fb6: e2 27:       bla (1r)        r2
             0x00080fb8: 02 73:       bu (u6)         0x2 <.label97>
.label96     0x00080fba: 01 5c:       ldw (ru6)       r0, sp[0x1]
             0x00080fbc: e2 27:       bla (1r)        r2
.label97     0x00080fbe: 91 09:       ldw (2rus)      r1, r8[0x1]
             0x00080fc0: 00 f0 13 58: ldw (lru6)      r0, dp[0x13]
             0x00080fc4: 99 31:       eq (3r)         r1, r10, r1
             0x00080fc6: 64 91:       add (2rus)      r10, r5, 0x0
             0x00080fc8: 47 78:       bf (ru6)        r1, 0x7 <.label98>
             0x00080fca: 90 34:       eq (3r)         r1, r0, r8
             0x00080fcc: 45 78:       bf (ru6)        r1, 0x5 <.label98>
.label92     0x00080fce: 3d 99:       sub (2rus)      r7, r7, 0x1
             0x00080fd0: c7 13:       add (3r)        r0, r9, r7
             0x00080fd2: 88 c1:       lss (3r)        r0, r10, r0
             0x00080fd4: 31 74:       bt (ru6)        r0, -0x31 <.label99>
             0x00080fd6: 02 73:       bu (u6)         0x2 <.label90>
.label98     0x00080fd8: 01 f0 0e 74: bt (lru6)       r0, -0x4e <.label100>
.label90     0x00080fdc: 8c 5e:       ldw (ru6)       r10, sp[0xc]
             0x00080fde: 45 fc ec ef: ldd (l2rus)     r9, r8, sp[0x5]
             0x00080fe2: 6c fb ec ef: ldd (l2rus)     r7, r6, sp[0x4]
             0x00080fe6: 07 f9 ec ef: ldd (l2rus)     r5, r4, sp[0x3]
             0x00080fea: ce 77:       retsp (u6)      0xe

<__errno>:
             0x00080fec: 00 f0 40 77: entsp (lu6)     0x0
             0x00080ff0: ee 17:       get (0r)        r11, id
             0x00080ff2: 02 f0 17 60: ldaw (lru6)     r0, dp[0x97]
             0x00080ff6: 83 fc ec 1f: ldaw (l3r)      r0, r0[r11]
             0x00080ffa: c0 77:       retsp (u6)      0x0

<xscope_xlink_put_ch>:
             0x00080ffc: 00 f0 40 77: entsp (lu6)     0x0
             0x00081000: 00 f0 4a 58: ldw (lru6)      r1, dp[0xa]
             0x00081004: 4b 78:       bf (ru6)        r1, 0xb <xscope_xlink_put_ch_ret>
             0x00081006: 00 f0 89 58: ldw (lru6)      r2, dp[0x9]
             0x0008100a: 87 70:       bt (ru6)        r2, 0x7 <xscope_xlink_outt>
             0x0008100c: 00 f0 4b 58: ldw (lru6)      r1, dp[0xb]
             0x00081010: 45 78:       bf (ru6)        r1, 0x5 <xscope_xlink_put_ch_ret>
             0x00081012: ca 86:       getr (rus)      r2, 0x2
             0x00081014: d6 16:       setd (r2r)      res[r2], r1
             0x00081016: 00 f0 89 50: stw (lru6)      r2, dp[0x9]

<xscope_xlink_outt>:
             0x0008101a: d2 0e:       outt (r2r)      res[r2], r0

<xscope_xlink_put_ch_ret>:
             0x0008101c: c0 77:       retsp (u6)      0x0
             0x0008101e: 00 00:       stw (2rus)      r0, r0[0x0]

<xscope_xlink_init>:
             0x00081020: 00 f0 40 77: entsp (lu6)     0x0
             0x00081024: 00 f0 4b 58: ldw (lru6)      r1, dp[0xb]
             0x00081028: 00 f0 48 7c: bf (lru6)       r1, -0x8 <xscope_xlink_put_ch_ret>
             0x0008102c: ca 86:       getr (rus)      r2, 0x2
             0x0008102e: d6 16:       setd (r2r)      res[r2], r1
             0x00081030: 00 f0 89 50: stw (lru6)      r2, dp[0x9]
             0x00081034: c0 77:       retsp (u6)      0x0
             0x00081036: 00 00:       stw (2rus)      r0, r0[0x0]

<xscope_xlink_deinit>:
             0x00081038: 00 f0 40 77: entsp (lu6)     0x0
             0x0008103c: 00 f0 49 58: ldw (lru6)      r1, dp[0x9]
             0x00081040: 00 f0 54 7c: bf (lru6)       r1, -0x14 <xscope_xlink_put_ch_ret>
             0x00081044: e1 17:       freer (1r)      res[r1]
             0x00081046: 80 68:       ldc (ru6)       r2, 0x0
             0x00081048: 00 f0 89 50: stw (lru6)      r2, dp[0x9]
             0x0008104c: c0 77:       retsp (u6)      0x0
             0x0008104e: 00 00:       stw (2rus)      r0, r0[0x0]

<xscope_xlink_put_ct>:
             0x00081050: 00 f0 40 77: entsp (lu6)     0x0
             0x00081054: 00 f0 4a 58: ldw (lru6)      r1, dp[0xa]
             0x00081058: 44 78:       bf (ru6)        r1, 0x4 <xscope_xlink_put_ct_ret>
             0x0008105a: 00 f0 89 58: ldw (lru6)      r2, dp[0x9]
             0x0008105e: 81 78:       bf (ru6)        r2, 0x1 <xscope_xlink_put_ct_ret>
             0x00081060: d9 4e:       outct (rus)     res[r2], 0x1

<xscope_xlink_put_ct_ret>:
             0x00081062: c0 77:       retsp (u6)      0x0

<xscope_xlink_start_token>:
             0x00081064: 00 f0 40 77: entsp (lu6)     0x0
             0x00081068: 00 f0 4a 58: ldw (lru6)      r1, dp[0xa]
             0x0008106c: 48 78:       bf (ru6)        r1, 0x8 <xscope_xlink_start_token_ret>
             0x0008106e: 00 f0 89 58: ldw (lru6)      r2, dp[0x9]
             0x00081072: 85 78:       bf (ru6)        r2, 0x5 <xscope_xlink_start_token_ret>
             0x00081074: d9 4e:       outct (rus)     res[r2], 0x1
             0x00081076: 01 f0 d5 6a: ldc (lru6)      r11, 0x55
             0x0008107a: 2b 4f:       outct (2r)      res[r2], r11
             0x0008107c: d9 4e:       outct (rus)     res[r2], 0x1

<xscope_xlink_start_token_ret>:
             0x0008107e: c0 77:       retsp (u6)      0x0

<__checkFptrGroup>:
             0x00081080: 00 f0 40 77: entsp (lu6)     0x0
             0x00081084: 30 90:       add (2rus)      r3, r0, 0x0
.label102    0x00081086: 06 c8:       lsu (3r)        r0, r1, r2
             0x00081088: 05 78:       bf (ru6)        r0, 0x5 <.label101>
             0x0008108a: 04 08:       ldw (2rus)      r0, r1[0x0]
             0x0008108c: 03 30:       eq (3r)         r0, r0, r3
             0x0008108e: 02 70:       bt (ru6)        r0, 0x2 <.label101>
             0x00081090: 54 92:       add (2rus)      r1, r1, 0x4
             0x00081092: 07 77:       bu (u6)         -0x7 <.label102>
.label101    0x00081094: c0 77:       retsp (u6)      0x0

Disassembly of section .eh_frame (size: 36)

             0x00081098: 0c 00 00 00: 
             0x0008109c: 00 00 00 00: 
             0x000810a0: 01 00 01 01: 
             0x000810a4: 0f 0c 0e 00: 
             0x000810a8: 10 00 00 00: 
             0x000810ac: 14 00 00 00: 
             0x000810b0: 6c 0e 08 00: 
             0x000810b4: 12 00 00 00: 
             0x000810b8: 07 0f 00 00: 

Disassembly of section .cp.rodata (size: 273)

<_cp>:
<.cp.rodata>:
<tiles_to_wake>:
.label11     0x000810c0: 02 1e 03 80: 

<chanends_to_setup>:
             0x000810c4: ff 00 00 00: 

<.cp.rodata>:
             0x000810c8: 30 19 f0 ff: 

<.cp.rodata>:
             0x000810cc: f0 19 f0 ff: 

<.cp.rodata>:
<_ctype_>:
             0x000810d0: 00 20 20 20: 
             0x000810d4: 20 20 20 20: 
             0x000810d8: 20 20 28 28: 
             0x000810dc: 28 28 28 20: 
             0x000810e0: 20 20 20 20: 
             0x000810e4: 20 20 20 20: 
             0x000810e8: 20 20 20 20: 
             0x000810ec: 20 20 20 20: 
             0x000810f0: 20 88 10 10: 
             0x000810f4: 10 10 10 10: 
             0x000810f8: 10 10 10 10: 
             0x000810fc: 10 10 10 10: 
             0x00081100: 10 04 04 04: 
             0x00081104: 04 04 04 04: 
             0x00081108: 04 04 04 10: 
             0x0008110c: 10 10 10 10: 
             0x00081110: 10 10 41 41: 
             0x00081114: 41 41 41 41: 
             0x00081118: 01 01 01 01: 
             0x0008111c: 01 01 01 01: 
             0x00081120: 01 01 01 01: 
             0x00081124: 01 01 01 01: 
             0x00081128: 01 01 01 01: 
             0x0008112c: 10 10 10 10: 
             0x00081130: 10 10 42 42: 
             0x00081134: 42 42 42 42: 
             0x00081138: 02 02 02 02: 
             0x0008113c: 02 02 02 02: 
             0x00081140: 02 02 02 02: 
             0x00081144: 02 02 02 02: 
             0x00081148: 02 02 02 02: 
             0x0008114c: 10 10 10 10: 
             0x00081150: 20 00 00 00: 
             0x00081154: 00 00 00 00: 
             0x00081158: 00 00 00 00: 
             0x0008115c: 00 00 00 00: 
             0x00081160: 00 00 00 00: 
             0x00081164: 00 00 00 00: 
             0x00081168: 00 00 00 00: 
             0x0008116c: 00 00 00 00: 
             0x00081170: 00 00 00 00: 
             0x00081174: 00 00 00 00: 
             0x00081178: 00 00 00 00: 
             0x0008117c: 00 00 00 00: 
             0x00081180: 00 00 00 00: 
             0x00081184: 00 00 00 00: 
             0x00081188: 00 00 00 00: 
             0x0008118c: 00 00 00 00: 
             0x00081190: 00 00 00 00: 
             0x00081194: 00 00 00 00: 
             0x00081198: 00 00 00 00: 
             0x0008119c: 00 00 00 00: 
             0x000811a0: 00 00 00 00: 
             0x000811a4: 00 00 00 00: 
             0x000811a8: 00 00 00 00: 
             0x000811ac: 00 00 00 00: 
             0x000811b0: 00 00 00 00: 
             0x000811b4: 00 00 00 00: 
             0x000811b8: 00 00 00 00: 
             0x000811bc: 00 00 00 00: 
             0x000811c0: 00 00 00 00: 
             0x000811c4: 00 00 00 00: 
             0x000811c8: 00 00 00 00: 
             0x000811cc: 00 00 00 00: 
             0x000811d0: 00:          

Disassembly of section .cp.rodata.4 (size: 12)

<_fptrgroup.stdlib_atexit.group.begin>:
             0x000811d4: a4 01 08 00: 
             0x000811d8: c8 01 08 00: 
             0x000811dc: d0 08 08 00: 

Disassembly of section .cp.const4 (size: 48)

<initial_dp>:
             0x000811e0: 00 13 08 00: 

<dp_bss_large_start>:
             0x000811e4: 7c 15 08 00: 

<extmem_bss_start>:
             0x000811e8: 00 00 00 10: 

<.cp.const4>:
<ctor_list_ptr>:
             0x000811ec: f0 12 08 00: 

<.cp.const4>:
<dtor_list_ptr>:
             0x000811f0: fc 12 08 00: 

<.cp.const4>:
<initial_sp>:
             0x000811f4: 78 ff 0f 00: 

<dp_bss_size>:
             0x000811f8: 24 02 00 00: 

<dp_bss_large_size>:
             0x000811fc: 00 00 00 00: 

<extmem_bss_size>:
             0x00081200: 00 00 00 00: 

<dtors_size>:
             0x00081204: 00 00 00 00: 

<ctors_size>:
             0x00081208: 03 00 00 00: 

<.cp.const4>:
             0x0008120c: 02 1e 03 80: 

Disassembly of section .cp.rodata.cst4 (size: 52)

<.cp.rodata.cst4>:
<.cp.rodata.cst4>:
<.cp.rodata.cst4>:
<.cp.rodata.cst4>:
<.cp.rodata.cst4>:
<.cp.rodata.cst4>:
<.cp.rodata.cst4>:
             0x00081210: 00 00 00 01: 
             0x00081214: 00 00 01 00: 
             0x00081218: 00 00 ff 00: 
             0x0008121c: 00 02 04 00: 
             0x00081220: 20 a1 07 00: 
             0x00081224: 44 33 22 11: 
             0x00081228: 90 ff ff ff: 
             0x0008122c: d0 ff ff ff: 
             0x00081230: fa ff ff ff: 
             0x00081234: fb ff ff ff: 
             0x00081238: fd ff ff ff: 
             0x0008123c: fe ff ff ff: 
             0x00081240: ff ff ff 7f: 

Disassembly of section .cp.rodata.string (size: 172)

<.cp.rodata.string>:
<.cp.rodata.string>:
<itoa.digits>:
             0x00081244: 30 31 32 33: 
             0x00081248: 34 35 36 37: 
             0x0008124c: 38 39 41 42: 
             0x00081250: 43 44 45 46: 
             0x00081254: 00 00 00 00: 
             0x00081258: 48 65 6c 6c: 
             0x0008125c: 6f 21 0a 00: 
             0x00081260: 67 65 74 54: 
             0x00081264: 72 69 67 67: 
             0x00081268: 65 72 54 69: 
             0x0008126c: 6d 65 20 74: 
             0x00081270: 73 31 20 3d: 
             0x00081274: 20 25 64 2c: 
             0x00081278: 20 74 73 32: 
             0x0008127c: 20 3d 20 25: 
             0x00081280: 64 2c 20 74: 
             0x00081284: 73 33 20 3d: 
             0x00081288: 20 25 64 2c: 
             0x0008128c: 20 74 73 34: 
             0x00081290: 20 3d 20 25: 
             0x00081294: 64 2c 20 74: 
             0x00081298: 69 6d 65 20: 
             0x0008129c: 3d 20 25 64: 
             0x000812a0: 0a 00 00 00: 
             0x000812a4: 6c 65 64 73: 
             0x000812a8: 20 3d 20 25: 
             0x000812ac: 64 20 25 64: 
             0x000812b0: 20 25 64 20: 
             0x000812b4: 25 64 20 25: 
             0x000812b8: 78 0a 00 00: 
             0x000812bc: 70 6c 65 64: 
             0x000812c0: 20 3d 20 25: 
             0x000812c4: 64 20 25 64: 
             0x000812c8: 20 25 64 20: 
             0x000812cc: 25 64 20 25: 
             0x000812d0: 78 0a 00 00: 
             0x000812d4: 74 65 73 74: 
             0x000812d8: 4c 65 64 73: 
             0x000812dc: 28 29 2c 20: 
             0x000812e0: 73 69 7a 65: 
             0x000812e4: 20 50 4c 45: 
             0x000812e8: 44 20 3d 20: 
             0x000812ec: 25 64 0a 00: 

Disassembly of section .ctors (size: 12)

<_CTOR_LIST_>:
<.ctors>:
             0x000812f0: e8 05 08 00: 

<.ctors>:
             0x000812f4: e0 08 08 00: 

<.ctors>:
             0x000812f8: 84 0a 08 00: 

Disassembly of section .dp.data (size: 48)

<_dp>:
<__timers>:
<.dp.data>:
<.dp.data>:
             0x00081300: 01 00 00 00: 
             0x00081304: 00 00 00 00: 
             0x00081308: 00 00 00 00: 
             0x0008130c: 00 00 00 00: 
             0x00081310: 00 00 00 00: 
             0x00081314: 00 00 00 00: 
             0x00081318: 00 00 00 00: 
             0x0008131c: 00 00 00 00: 

<XSCOPE_REDIRECT_IO>:
<.dp.data>:
             0x00081320: 00 00 00 00: 

<__sodChan>:
<.dp.data>:
             0x00081324: 00 00 00 00: 

<__sodFlag>:
<.dp.data>:
             0x00081328: 00 00 00 00: 

<__sodEnd>:
             0x0008132c: 02 01 00 80: 

Disassembly of section .dp.data.4 (size: 32)

<.dp.data.4>:
<par.desc.1>:
             0x00081330: 8c 01 08 00: 
             0x00081334: 02 00 00 00: 
             0x00081338: 00 00 00 00: 
             0x0008133c: 98 01 08 00: 

<.dp.data.4>:
<_ZN2XC13micros_factorE>:
             0x00081340: 28 5c 8f 02: 

<__ctype_ptr__>:
<.dp.data.4>:
             0x00081344: d0 10 08 00: 

<xscope_ref_clk>:
<.dp.data.4>:
             0x00081348: 06 00 00 00: 

<.dp.data.4>:
<_atexit_fns>:
             0x0008134c: c4 13 08 00: 

Disassembly of section .dp.rodata (size: 4)

<tile>:
             0x00081350: 00 00 01 00: 

Disassembly of section .dp.data.extmem.setps (size: 4)

<.dp.data.extmem.setps>:
<__extmem_setps_val>:
             0x00081354: 00 18 00 00: 

Loadable 2 for tile[1] (node "0", tile 1):

SYMBOL TABLE
0x00000000 l F *ABS*      0x00000000 
0x000805c0 g   .cp.rodata 0x00000000 _cp
0x00080618 g   .dp.data   0x00000000 _dp
0x00080618 g   .bss       0x00000000 _fbss
0x00080660 g   .dp.bss    0x00000000 _fdp.bss
0x00080858 g   .dp.bss.large 0x00000000 _fdp.bss.large
0x10000000 g   .ExtMem.bss 0x00000000 _fextmem.bss
0x00080610 g   .ctors     0x00000000 _CTOR_LIST_
0x00080618 g   .dtors     0x00000000 _DTOR_LIST_
0x05f5e100 g   *ABS*      0x00000000 _xs1_timer_hz
0x23c34600 g   *ABS*      0x00000000 _processor_hz
0x00000006 g   *ABS*      0x00000000 _default_clkblk
0x00000000 g   *ABS*      0x00000000 _cmdline_buffer_bytes
0x00000000 g   *ABS*      0x00000000 XSCOPE_REDIRECT_IO_MODE
0x00000000 l F *ABS*      0x00000000 crt1.S
0x00000000 l   *ABS*      0x00000000 _cmdline_buffer_words
0x00000000 l   *ABS*      0x00000000 _cmdline_buffer_bytes_aligned
0x00000001 l   *ABS*      0x00000000 _cmdline_buffer_stackwords
0x000ffea4 g   *ABS*      0x00000000 _eheap
0x0008085c g   *ABS*      0x00000000 _bheap
0x00000057 l   *ABS*      0x00000000 _reserved_stackspace
0x00000057 g   *ABS*      0x00000000 _start.nstackwords
0x00080000 g   *ABS*      0x00000000 .ram_base
0x00080000 g   *ABS*      0x00000000 .ram_size
0x00080858 g   .dp.bss.large 0x00000000 _edp.bss.large
0x00080658 l   .dp.data.extmem.setps 0x00000000 .dp.data.extmem.setps
0x00080658 g   .dp.data.extmem.setps 0x00000000 __extmem_setps_val
0x00080000 l   .crt       0x00000000 .crt
0x00000000 l   *ABS*      0x00000000 _num_global_chanends
0x00000000 l   *ABS*      0x00000000 _num_global_timers
0x00080000 g f .crt       0x0000007a _start
0x000800ae l f .crt       0x00000014 _SetupThread
0x000800cc g f .init      0x0000001a _init
0x00080284 g f .text      0x00000010 _get_cmdline
0x0008022a g f .text      0x0000005a main
0x00080294 g f .text      0x00000018 __libc_done
0x000802ac g f .text      0x0000001c _exit_unlocked
0x00080088 l f .crt       0x00000022 _startExit
0x00000002 g   *ABS*      0x00000000 _start.maxcores
0x00000002 g   *ABS*      0x00000000 _start.maxtimers
0x00000000 g   *ABS*      0x00000000 _start.maxchanends
0x00000000 l   *ABS*      0x00000000 _SetupThread.nstackwords
0x00000032 g   *ABS*      0x00000000 _init.nstackwords
0x0000000e g   *ABS*      0x00000000 main.nstackwords
0x00000034 g   *ABS*      0x00000000 __libc_done.nstackwords
0x00000036 g   *ABS*      0x00000000 _exit_unlocked.nstackwords
0x00000000 g   *ABS*      0x00000000 _get_cmdline.nstackwords
0x00000001 l   *ABS*      0x00000000 _SetupThread.maxcores
0x00000001 g   *ABS*      0x00000000 _init.maxcores
0x00000002 g   *ABS*      0x00000000 main.maxcores
0x00000001 g   *ABS*      0x00000000 __libc_done.maxcores
0x00000001 g   *ABS*      0x00000000 _exit_unlocked.maxcores
0x00000000 g   *ABS*      0x00000000 _get_cmdline.maxcores
0x00000000 l   *ABS*      0x00000000 _SetupThread.maxtimers
0x00000000 g   *ABS*      0x00000000 _init.maxtimers
0x00000001 g   *ABS*      0x00000000 main.maxtimers
0x00000000 g   *ABS*      0x00000000 __libc_done.maxtimers
0x00000000 g   *ABS*      0x00000000 _exit_unlocked.maxtimers
0x00000000 g   *ABS*      0x00000000 _get_cmdline.maxtimers
0x00000000 l   *ABS*      0x00000000 _SetupThread.maxchanends
0x00000000 g   *ABS*      0x00000000 _init.maxchanends
0x00000000 g   *ABS*      0x00000000 main.maxchanends
0x00000000 g   *ABS*      0x00000000 __libc_done.maxchanends
0x00000000 g   *ABS*      0x00000000 _exit_unlocked.maxchanends
0x00000000 g   *ABS*      0x00000000 _get_cmdline.maxchanends
0x00080080 l f .crt       0x00000008 _TrapHandler
0x00000000 g   *ABS*      0x00000000 _DoException.nstackwords
0x00000000 l   *ABS*      0x00000000 _TrapHandler.nstackwords
0x00000000 g   *ABS*      0x00000000 _DoException.maxcores
0x00000000 l   *ABS*      0x00000000 _TrapHandler.maxcores
0x00000000 g   *ABS*      0x00000000 _DoException.maxtimers
0x00000000 l   *ABS*      0x00000000 _TrapHandler.maxtimers
0x00000000 g   *ABS*      0x00000000 _DoException.maxchanends
0x00000000 l   *ABS*      0x00000000 _TrapHandler.maxchanends
0x00000000 l   *ABS*      0x00000000 _startExit.nstackwords
0x00000001 l   *ABS*      0x00000000 _startExit.maxcores
0x00000000 l   *ABS*      0x00000000 _startExit.maxtimers
0x00000000 l   *ABS*      0x00000000 _startExit.maxchanends
0x000800aa l f .crt       0x00000004 _InitChildThread
0x00000000 l   *ABS*      0x00000000 _InitChildThread.nstackwords
0x00000001 l   *ABS*      0x00000000 _InitChildThread.maxcores
0x00000000 l   *ABS*      0x00000000 _InitChildThread.maxtimers
0x00000000 l   *ABS*      0x00000000 _InitChildThread.maxchanends
0x000803c8 g f .text      0x0000000c __alloc_libc_hwlock
0x00000000 g   *ABS*      0x00000000 __alloc_libc_hwlock.nstackwords
0x00000001 g   *ABS*      0x00000000 __alloc_libc_hwlock.maxcores
0x00000000 g   *ABS*      0x00000000 __alloc_libc_hwlock.maxtimers
0x00000000 g   *ABS*      0x00000000 __alloc_libc_hwlock.maxchanends
0x000800c2  wf .crt       0x00000002 __register_frame_info_bases
0x00000000  w  *ABS*      0x00000000 __register_frame_info_bases.nstackwords
0x00000001  w  *ABS*      0x00000000 __register_frame_info_bases.maxcores
0x00000000  w  *ABS*      0x00000000 __register_frame_info_bases.maxtimers
0x00000000  w  *ABS*      0x00000000 __register_frame_info_bases.maxchanends
0x000800cc l   .init      0x00000000 .init
0x000800e6 l   .fini      0x00000000 .fini
0x000800e6 g f .fini      0x0000002e _fini
0x00000032 g   *ABS*      0x00000000 _fini.nstackwords
0x00000001 g   *ABS*      0x00000000 _fini.maxcores
0x00000000 g   *ABS*      0x00000000 _fini.maxtimers
0x00000000 g   *ABS*      0x00000000 _fini.maxchanends
0x000805ec l   .cp.const4 0x00000000 .cp.const4
0x000805ec l   .cp.const4 0x00000000 initial_sp
0x000805d8 l   .cp.const4 0x00000000 initial_dp
0x000805f0 l   .cp.const4 0x00000000 dp_bss_size
0x00080858 g   .dp.bss.4  0x00000000 _edp.bss
0x000805dc l   .cp.const4 0x00000000 dp_bss_large_start
0x000805f4 l   .cp.const4 0x00000000 dp_bss_large_size
0x000805e0 l   .cp.const4 0x00000000 extmem_bss_start
0x000805f8 l   .cp.const4 0x00000000 extmem_bss_size
0x10000000 g   .ExtMem.bss 0x00000000 _eextmem.bss
0x00000000 l   .trap_info_str 0x00000000 .trap_info_str
0x00000000 l   .trap_info 0x00000000 .trap_info
0x000802c8 g f .text      0x00000008 memset
0x000802d0 g f .text      0x00000012 __init_threadlocal_timer
0x000800c4 g f .crt       0x00000008 _DoException
0x00080000 l   .crt       0x00000000 $s.67
0x000800cc l   .init      0x00000000 $s.68
0x000800e6 l   .fini      0x00000000 $s.69
0x00000000 l F *ABS*      0x00000000 crtbegin.S
0x000805e8 l   .cp.const4 0x00000000 .cp.const4
0x000805e8 l   .cp.const4 0x00000000 dtor_list_ptr
0x000805fc l   .cp.const4 0x00000000 dtors_size
0x00080618 g   .dtors     0x00000000 _DTOR_END_
0x000800e8 l   .fini      0x00000000 .fini
0x000800fc l   .fini      0x00000000 do_dtors_loop
0x00080106 l   .fini      0x00000000 do_dtors_end
0x000802e4 g f .text      0x00000010 __free_threadlocal_timer
0x000800e8 l   .fini      0x00000000 $s.5
0x00000000 l F *ABS*      0x00000000 xscope_write.c
0x00000000 l   .debug_info 0x00000000 .debug_info
0x00000000 l   .debug_abbrev 0x00000000 .debug_abbrev
0x00000000 l   .debug_line 0x00000000 .debug_line
0x0000069e l   .debug_str 0x00000000 .debug_str
0x00000000 l   .debug_loc 0x00000000 .debug_loc
0x00000000 l   .debug_ranges 0x00000000 .debug_ranges
0x00000012 g   *ABS*      0x00000000 _write.nstackwords
0x00000000 g   *ABS*      0x00000000 xscope_get_io_config.nstackwords
0x00000002 g   *ABS*      0x00000000 xscope_syscall_write.nstackwords
0x0000000c g   *ABS*      0x00000000 xscope_syscall_data_write.nstackwords
0x00000001 g   *ABS*      0x00000000 _write.maxcores
0x00000001 g   *ABS*      0x00000000 xscope_get_io_config.maxcores
0x00000001 g   *ABS*      0x00000000 xscope_syscall_data_write.maxcores
0x00000001 g   *ABS*      0x00000000 xscope_syscall_write.maxcores
0x00000000 g   *ABS*      0x00000000 _write.maxtimers
0x00000000 g   *ABS*      0x00000000 xscope_get_io_config.maxtimers
0x00000000 g   *ABS*      0x00000000 xscope_syscall_data_write.maxtimers
0x00000000 g   *ABS*      0x00000000 xscope_syscall_write.maxtimers
0x00000000 g   *ABS*      0x00000000 _write.maxchanends
0x00000000 g   *ABS*      0x00000000 xscope_get_io_config.maxchanends
0x00000000 g   *ABS*      0x00000000 xscope_syscall_data_write.maxchanends
0x00000000 g   *ABS*      0x00000000 xscope_syscall_write.maxchanends
0x00000010 l   .trap_info 0x00000000 .trap_info
0x00000000 l F *ABS*      0x00000000 /Users/fabrice/github/XTC/lib_xcpp/tests/xcpp_test/src/main.xc
0x00000000 l   .netinfo   0x00000000 .netinfo
0x00000004 l   .netinfo   0x00000000 main.parinfo.debugstring0
0x0000000c l   .netinfo   0x00000000 main.parinfo.debugstring1
0x00080654 g O .dp.rodata 0x00000004 tile
0x00000000 l   *ABS*      0x00000000 usage.anon.3
0x00080114 g f .text      0x00000010 __main__main_tile_1
0x00000000 l   *ABS*      0x00000000 usage.anon.4
0x00000000 l   *ABS*      0x00000000 usage.anon.0
0x00000000 l   *ABS*      0x00000000 usage.anon.1
0x00000000 l   *ABS*      0x00000000 usage.anon.2
0x00080164 g f .text      0x00000008 tile1_task2
0x0008015c g f .text      0x00000008 tile1_task1
0x00080124 l f .text      0x0000000c __main__main_tile_1_task_tile1_task1_2
0x00080130 l f .text      0x0000000a __main__main_tile_1_task_tile1_task2_3
0x000000b2 l   .debug_info 0x00000000 .debug_info
0x00000083 l   .debug_abbrev 0x00000000 .debug_abbrev
0x0000011e l   .debug_line 0x00000000 .debug_line
0x00000668 l   .debug_str 0x00000000 .debug_str
0x00000020 l   .debug_loc 0x00000000 .debug_loc
0x00000008 l   .debug_ranges 0x00000000 .debug_ranges
0x00000080 g   *ABS*      0x00000000 __main__main_tile_0.nstackwords
0x00000004 g   *ABS*      0x00000000 par.extra_stackwords
0x00000076 l   *ABS*      0x00000000 __main__main_tile_0_task_tile0_task1_0.nstackwords
0x00000002 l   *ABS*      0x00000000 __main__main_tile_0_task_tile0_task2_1.nstackwords
0x00000002 g   *ABS*      0x00000000 __main__main_tile_0.maxcores
0x00000001 l   *ABS*      0x00000000 __main__main_tile_0_task_tile0_task1_0.maxcores
0x00000001 l   *ABS*      0x00000000 __main__main_tile_0_task_tile0_task2_1.maxcores
0x00000001 g   *ABS*      0x00000000 __main__main_tile_0.maxtimers
0x00000000 l   *ABS*      0x00000000 __main__main_tile_0_task_tile0_task1_0.maxtimers
0x00000000 l   *ABS*      0x00000000 __main__main_tile_0_task_tile0_task2_1.maxtimers
0x00000000 g   *ABS*      0x00000000 __main__main_tile_0.maxchanends
0x00000000 l   *ABS*      0x00000000 __main__main_tile_0_task_tile0_task1_0.maxchanends
0x00000000 l   *ABS*      0x00000000 __main__main_tile_0_task_tile0_task2_1.maxchanends
0x00000074 g   *ABS*      0x00000000 tile0_task1.nstackwords
0x00000001 g   *ABS*      0x00000000 tile0_task1.maxcores
0x00000000 g   *ABS*      0x00000000 tile0_task1.maxtimers
0x00000000 g   *ABS*      0x00000000 tile0_task1.maxchanends
0x00000000 g   *ABS*      0x00000000 tile0_task2.nstackwords
0x00000001 g   *ABS*      0x00000000 tile0_task2.maxcores
0x00000000 g   *ABS*      0x00000000 tile0_task2.maxtimers
0x00000000 g   *ABS*      0x00000000 tile0_task2.maxchanends
0x0000000c g   *ABS*      0x00000000 __main__main_tile_1.nstackwords
0x00000002 l   *ABS*      0x00000000 __main__main_tile_1_task_tile1_task1_2.nstackwords
0x00000002 l   *ABS*      0x00000000 __main__main_tile_1_task_tile1_task2_3.nstackwords
0x00000002 g   *ABS*      0x00000000 __main__main_tile_1.maxcores
0x00000001 l   *ABS*      0x00000000 __main__main_tile_1_task_tile1_task1_2.maxcores
0x00000001 l   *ABS*      0x00000000 __main__main_tile_1_task_tile1_task2_3.maxcores
0x00000001 g   *ABS*      0x00000000 __main__main_tile_1.maxtimers
0x00000000 l   *ABS*      0x00000000 __main__main_tile_1_task_tile1_task1_2.maxtimers
0x00000000 l   *ABS*      0x00000000 __main__main_tile_1_task_tile1_task2_3.maxtimers
0x00000000 g   *ABS*      0x00000000 __main__main_tile_1.maxchanends
0x00000000 l   *ABS*      0x00000000 __main__main_tile_1_task_tile1_task1_2.maxchanends
0x00000000 l   *ABS*      0x00000000 __main__main_tile_1_task_tile1_task2_3.maxchanends
0x00000000 g   *ABS*      0x00000000 tile1_task1.nstackwords
0x00000001 g   *ABS*      0x00000000 tile1_task1.maxcores
0x00000000 g   *ABS*      0x00000000 tile1_task1.maxtimers
0x00000000 g   *ABS*      0x00000000 tile1_task1.maxchanends
0x00000000 g   *ABS*      0x00000000 tile1_task2.nstackwords
0x00000001 g   *ABS*      0x00000000 tile1_task2.maxcores
0x00000000 g   *ABS*      0x00000000 tile1_task2.maxtimers
0x00000000 g   *ABS*      0x00000000 tile1_task2.maxchanends
0x00080640 l   .dp.data.4 0x00000000 .dp.data.4
0x00080640 l O .dp.data.4 0x00000010 par.desc.2
0x00000000 l   .xtacalltable 0x00000000 .xtacalltable
0x00000018 l   .trap_info 0x00000000 .trap_info
0x00080320 g f .text      0x00000000 __start_other_cores
0x00080114 l   .text      0x00000000 $s.148
0x00080124 l   .text      0x00000000 $s.149
0x00080130 l   .text      0x00000000 $s.150
0x00000000 l F *ABS*      0x00000000 sometests.cpp
0x000001ba l   .debug_info 0x00000000 .debug_info
0x000000f1 l   .debug_abbrev 0x00000000 .debug_abbrev
0x000001eb l   .debug_line 0x00000000 .debug_line
0x0000069e l   .debug_str 0x00000000 .debug_str
0x00000056 l   .debug_loc 0x00000000 .debug_loc
0x00000038 l   .debug_ranges 0x00000000 .debug_ranges
0x00000020 l   .trap_info 0x00000000 .trap_info
0x00000000 l F *ABS*      0x00000000 tests.cpp
0x0008013c l f .text      0x00000010 __dtor_PIN
0x00000000 l   *ABS*      0x00000000 __dtor_PIN.nstackwords
0x00000001 l   *ABS*      0x00000000 __dtor_PIN.maxcores
0x00000000 l   *ABS*      0x00000000 __dtor_PIN.maxtimers
0x00000000 l   *ABS*      0x00000000 __dtor_PIN.maxchanends
0x0008014c l f .text      0x00000010 __dtor_PLEDS
0x00000000 l   *ABS*      0x00000000 __dtor_PLEDS.nstackwords
0x00000001 l   *ABS*      0x00000000 __dtor_PLEDS.maxcores
0x00000000 l   *ABS*      0x00000000 __dtor_PLEDS.maxtimers
0x00000000 l   *ABS*      0x00000000 __dtor_PLEDS.maxchanends
0x000001d9 l   .debug_info 0x00000000 .debug_info
0x00000104 l   .debug_abbrev 0x00000000 .debug_abbrev
0x00000208 l   .debug_line 0x00000000 .debug_line
0x0000069e l   .debug_str 0x00000000 .debug_str
0x00000056 l   .debug_loc 0x00000000 .debug_loc
0x00000038 l   .debug_ranges 0x00000000 .debug_ranges
0x00000002  w  *ABS*      0x00000000 _ZN6XCPortC2EjNS_10PortMode_tEj.nstackwords
0x00000000  w  *ABS*      0x00000000 _ZN6XCPort7setModeENS_10PortMode_tEj.nstackwords
0x00000001  w  *ABS*      0x00000000 _ZN6XCPortC2EjNS_10PortMode_tEj.maxcores
0x00000001  w  *ABS*      0x00000000 _ZN6XCPort7setModeENS_10PortMode_tEj.maxcores
0x00000000  w  *ABS*      0x00000000 _ZN6XCPortC2EjNS_10PortMode_tEj.maxtimers
0x00000000  w  *ABS*      0x00000000 _ZN6XCPort7setModeENS_10PortMode_tEj.maxtimers
0x00000000  w  *ABS*      0x00000000 _ZN6XCPortC2EjNS_10PortMode_tEj.maxchanends
0x00000000  w  *ABS*      0x00000000 _ZN6XCPort7setModeENS_10PortMode_tEj.maxchanends
0x00080608 l   .cp.rodata.cst4 0x00000000 .cp.rodata.cst4
0x00000072 g   *ABS*      0x00000000 _Z8testLedsv.nstackwords
0x00000000 g   *ABS*      0x00000000 _ZN2XC6microsEv.nstackwords
0x00000004  w  *ABS*      0x00000000 _ZN9XCPortBit3setEj.nstackwords
0x00000000  w  *ABS*      0x00000000 _ZNK6XCPort8bitproxycvjEv.nstackwords
0x00000002  w  *ABS*      0x00000000 _ZN6XCPort8bitproxyaSEj.nstackwords
0x00000000  w  *ABS*      0x00000000 _ZNK9XCPortBit6getValEv.nstackwords
0x0000000a  w  *ABS*      0x00000000 _ZN9XCPortBitaSERKS_.nstackwords
0x00000006  w  *ABS*      0x00000000 _ZN13XCTimerMicros4waitEx.nstackwords
0x00000044 g   *ABS*      0x00000000 debug_printf.nstackwords
0x00000001 g   *ABS*      0x00000000 _Z8testLedsv.maxcores
0x00000001  w  *ABS*      0x00000000 _ZN13XCTimerMicros4waitEx.maxcores
0x00000001 g   *ABS*      0x00000000 _ZN2XC6microsEv.maxcores
0x00000001  w  *ABS*      0x00000000 _ZN6XCPort8bitproxyaSEj.maxcores
0x00000001  w  *ABS*      0x00000000 _ZN9XCPortBit3setEj.maxcores
0x00000001  w  *ABS*      0x00000000 _ZN9XCPortBitaSERKS_.maxcores
0x00000001  w  *ABS*      0x00000000 _ZNK6XCPort8bitproxycvjEv.maxcores
0x00000001  w  *ABS*      0x00000000 _ZNK9XCPortBit6getValEv.maxcores
0x00000001 g   *ABS*      0x00000000 debug_printf.maxcores
0x00000000 g   *ABS*      0x00000000 _Z8testLedsv.maxtimers
0x00000000  w  *ABS*      0x00000000 _ZN13XCTimerMicros4waitEx.maxtimers
0x00000000 g   *ABS*      0x00000000 _ZN2XC6microsEv.maxtimers
0x00000000  w  *ABS*      0x00000000 _ZN6XCPort8bitproxyaSEj.maxtimers
0x00000000  w  *ABS*      0x00000000 _ZN9XCPortBit3setEj.maxtimers
0x00000000  w  *ABS*      0x00000000 _ZN9XCPortBitaSERKS_.maxtimers
0x00000000  w  *ABS*      0x00000000 _ZNK6XCPort8bitproxycvjEv.maxtimers
0x00000000  w  *ABS*      0x00000000 _ZNK9XCPortBit6getValEv.maxtimers
0x00000000 g   *ABS*      0x00000000 debug_printf.maxtimers
0x00000000 g   *ABS*      0x00000000 _Z8testLedsv.maxchanends
0x00000000  w  *ABS*      0x00000000 _ZN13XCTimerMicros4waitEx.maxchanends
0x00000000 g   *ABS*      0x00000000 _ZN2XC6microsEv.maxchanends
0x00000000  w  *ABS*      0x00000000 _ZN6XCPort8bitproxyaSEj.maxchanends
0x00000000  w  *ABS*      0x00000000 _ZN9XCPortBit3setEj.maxchanends
0x00000000  w  *ABS*      0x00000000 _ZN9XCPortBitaSERKS_.maxchanends
0x00000000  w  *ABS*      0x00000000 _ZNK6XCPort8bitproxycvjEv.maxchanends
0x00000000  w  *ABS*      0x00000000 _ZNK9XCPortBit6getValEv.maxchanends
0x00000000 g   *ABS*      0x00000000 debug_printf.maxchanends
0x00000000  w  *ABS*      0x00000000 _ZN9XCPortBit3setEv.nstackwords
0x00000001  w  *ABS*      0x00000000 _ZN9XCPortBit3setEv.maxcores
0x00000000  w  *ABS*      0x00000000 _ZN9XCPortBit3setEv.maxtimers
0x00000000  w  *ABS*      0x00000000 _ZN9XCPortBit3setEv.maxchanends
0x00000000  w  *ABS*      0x00000000 _ZN9XCPortBit3clrEv.nstackwords
0x00000001  w  *ABS*      0x00000000 _ZN9XCPortBit3clrEv.maxcores
0x00000000  w  *ABS*      0x00000000 _ZN9XCPortBit3clrEv.maxtimers
0x00000000  w  *ABS*      0x00000000 _ZN9XCPortBit3clrEv.maxchanends
0x0008016c l f .text      0x0000006a _GLOBAL__sub_I_tests.cpp
0x00000010 l   *ABS*      0x00000000 _GLOBAL__sub_I_tests.cpp.nstackwords
0x0000000a g   *ABS*      0x00000000 atexit.nstackwords
0x00000001 l   *ABS*      0x00000000 _GLOBAL__sub_I_tests.cpp.maxcores
0x00000001 g   *ABS*      0x00000000 atexit.maxcores
0x00000000 l   *ABS*      0x00000000 _GLOBAL__sub_I_tests.cpp.maxtimers
0x00000000 g   *ABS*      0x00000000 atexit.maxtimers
0x00000000 l   *ABS*      0x00000000 _GLOBAL__sub_I_tests.cpp.maxchanends
0x00000000 g   *ABS*      0x00000000 atexit.maxchanends
0x00080660 l   .dp.bss    0x00000000 .dp.bss
0x00080660 g O .dp.bss    0x00000008 PIN
0x00080668 g O .dp.bss    0x00000008 PLEDS
0x00080670 g O .dp.bss    0x00000008 led0
0x00080678 g O .dp.bss    0x00000008 led1
0x00080680 g O .dp.bss    0x00000008 led2
0x00080688 g O .dp.bss    0x00000008 led3
0x00080610 l   .cp.rodata.string 0x00000000 .cp.rodata.string
0x00080610 l   .ctors     0x00000000 .ctors
0x00000028 l   .trap_info 0x00000000 .trap_info
0x0008036c g f .text      0x00000012 atexit
0x0008013c l   .text      0x00000000 $s.2136
0x0008014c l   .text      0x00000000 $s.2138
0x0008015c l   .text      0x00000000 $s.2148
0x00080164 l   .text      0x00000000 $s.2149
0x0008016c l   .text      0x00000000 $s.2153
0x00000000 l F *ABS*      0x00000000 debug_printf.c
0x000031f4 l   .debug_info 0x00000000 .debug_info
0x000003ce l   .debug_abbrev 0x00000000 .debug_abbrev
0x0000043c l   .debug_line 0x00000000 .debug_line
0x0000069e l   .debug_str 0x00000000 .debug_str
0x00000514 l   .debug_loc 0x00000000 .debug_loc
0x000007f8 l   .debug_ranges 0x00000000 .debug_ranges
0x00080608 l   .cp.rodata.cst4 0x00000000 .cp.rodata.cst4
0x00000006 l   *ABS*      0x00000000 itoa.nstackwords
0x00000000 g   *ABS*      0x00000000 strlen.nstackwords
0x00000003 g   *ABS*      0x00000000 memcpy.nstackwords
0x00000001 l   *ABS*      0x00000000 itoa.maxcores
0x00000001 g   *ABS*      0x00000000 strlen.maxcores
0x00000000 l   *ABS*      0x00000000 itoa.maxtimers
0x00000000 g   *ABS*      0x00000000 strlen.maxtimers
0x00000000 l   *ABS*      0x00000000 itoa.maxchanends
0x00000000 g   *ABS*      0x00000000 strlen.maxchanends
0x00000000 g   *ABS*      0x00000000 memset.nstackwords
0x00080610 l   .cp.rodata.string 0x00000000 .cp.rodata.string
0x00000030 l   .trap_info 0x00000000 .trap_info
0x00000000 l F *ABS*      0x00000000 XC_I2C_master.cpp
0x000033f3 l   .debug_info 0x00000000 .debug_info
0x000004f2 l   .debug_abbrev 0x00000000 .debug_abbrev
0x000004e0 l   .debug_line 0x00000000 .debug_line
0x0000069e l   .debug_str 0x00000000 .debug_str
0x0000058c l   .debug_loc 0x00000000 .debug_loc
0x00000828 l   .debug_ranges 0x00000000 .debug_ranges
0x00000038 l   .trap_info 0x00000000 .trap_info
0x00000000 l F *ABS*      0x00000000 XC_core.cpp
0x00000000 g   *ABS*      0x00000000 XC_USE_TIMER.nstackwords
0x00000001 g   *ABS*      0x00000000 XC_USE_TIMER.maxcores
0x00000001 g   *ABS*      0x00000000 XC_USE_TIMER.maxtimers
0x00000000 g   *ABS*      0x00000000 XC_USE_TIMER.maxchanends
0x000801d8 l   .text      0x00000000 XC_USE_TIMER_END
0x00000000 g   *ABS*      0x00000000 XC_USE_CHANEND.nstackwords
0x00000001 g   *ABS*      0x00000000 XC_USE_CHANEND.maxcores
0x00000000 g   *ABS*      0x00000000 XC_USE_CHANEND.maxtimers
0x00000001 g   *ABS*      0x00000000 XC_USE_CHANEND.maxchanends
0x000801d8 l   .text      0x00000000 XC_USE_CHANEND_END
0x000801d8 l f .text      0x00000010 __dtor_XCPortUndefined
0x00000000 l   *ABS*      0x00000000 __dtor_XCPortUndefined.nstackwords
0x00000001 l   *ABS*      0x00000000 __dtor_XCPortUndefined.maxcores
0x00000000 l   *ABS*      0x00000000 __dtor_XCPortUndefined.maxtimers
0x00000000 l   *ABS*      0x00000000 __dtor_XCPortUndefined.maxchanends
0x00003412 l   .debug_info 0x00000000 .debug_info
0x00000505 l   .debug_abbrev 0x00000000 .debug_abbrev
0x000004fd l   .debug_line 0x00000000 .debug_line
0x0000069e l   .debug_str 0x00000000 .debug_str
0x0000058c l   .debug_loc 0x00000000 .debug_loc
0x00000828 l   .debug_ranges 0x00000000 .debug_ranges
0x00080608 l   .cp.rodata.cst4 0x00000000 .cp.rodata.cst4
0x00000000 g   *ABS*      0x00000000 _ZN2XC14setReferenceHzEj.nstackwords
0x00000001 g   *ABS*      0x00000000 _ZN2XC14setReferenceHzEj.maxcores
0x00000000 g   *ABS*      0x00000000 _ZN2XC14setReferenceHzEj.maxtimers
0x00000000 g   *ABS*      0x00000000 _ZN2XC14setReferenceHzEj.maxchanends
0x00000000 g   *ABS*      0x00000000 _ZN2XC6millisEv.nstackwords
0x00000001 g   *ABS*      0x00000000 _ZN2XC6millisEv.maxcores
0x00000000 g   *ABS*      0x00000000 _ZN2XC6millisEv.maxtimers
0x00000000 g   *ABS*      0x00000000 _ZN2XC6millisEv.maxchanends
0x00000006 g   *ABS*      0x00000000 _ZN2XC11delayMicrosEj.nstackwords
0x00000000  w  *ABS*      0x00000000 _ZN7XCTimer9waitTicksEi.nstackwords
0x00000001 g   *ABS*      0x00000000 _ZN2XC11delayMicrosEj.maxcores
0x00000001  w  *ABS*      0x00000000 _ZN7XCTimer9waitTicksEi.maxcores
0x00000001 g   *ABS*      0x00000000 _ZN2XC11delayMicrosEj.maxtimers
0x00000000  w  *ABS*      0x00000000 _ZN7XCTimer9waitTicksEi.maxtimers
0x00000000 g   *ABS*      0x00000000 _ZN2XC11delayMicrosEj.maxchanends
0x00000000  w  *ABS*      0x00000000 _ZN7XCTimer9waitTicksEi.maxchanends
0x00000006 g   *ABS*      0x00000000 _ZN2XC15delaySyncMicrosERij.nstackwords
0x00000001 g   *ABS*      0x00000000 _ZN2XC15delaySyncMicrosERij.maxcores
0x00000001 g   *ABS*      0x00000000 _ZN2XC15delaySyncMicrosERij.maxtimers
0x00000000 g   *ABS*      0x00000000 _ZN2XC15delaySyncMicrosERij.maxchanends
0x00000010 g   *ABS*      0x00000000 _ZN2XC3PLL12computeTicksEj.nstackwords
0x0000000e g   *ABS*      0x00000000 __udivdi3.nstackwords
0x00000001 g   *ABS*      0x00000000 _ZN2XC3PLL12computeTicksEj.maxcores
0x00000000 g   *ABS*      0x00000000 _ZN2XC3PLL12computeTicksEj.maxtimers
0x00000000 g   *ABS*      0x00000000 _ZN2XC3PLL12computeTicksEj.maxchanends
0x00000002 g   *ABS*      0x00000000 _ZN2XC3PLL9readValueEv.nstackwords
0x00000000 g   *ABS*      0x00000000 get_local_tile_id.nstackwords
0x00000000 g   *ABS*      0x00000000 read_sswitch_reg.nstackwords
0x00000001 g   *ABS*      0x00000000 _ZN2XC3PLL9readValueEv.maxcores
0x00000001 g   *ABS*      0x00000000 get_local_tile_id.maxcores
0x00000001 g   *ABS*      0x00000000 read_sswitch_reg.maxcores
0x00000000 g   *ABS*      0x00000000 _ZN2XC3PLL9readValueEv.maxtimers
0x00000000 g   *ABS*      0x00000000 get_local_tile_id.maxtimers
0x00000000 g   *ABS*      0x00000000 read_sswitch_reg.maxtimers
0x00000001 g   *ABS*      0x00000000 _ZN2XC3PLL9readValueEv.maxchanends
0x00000000 g   *ABS*      0x00000000 get_local_tile_id.maxchanends
0x00000001 g   *ABS*      0x00000000 read_sswitch_reg.maxchanends
0x00000012 g   *ABS*      0x00000000 _ZN2XC3PLL9readTicksEv.nstackwords
0x00000001 g   *ABS*      0x00000000 _ZN2XC3PLL9readTicksEv.maxcores
0x00000000 g   *ABS*      0x00000000 _ZN2XC3PLL9readTicksEv.maxtimers
0x00000001 g   *ABS*      0x00000000 _ZN2XC3PLL9readTicksEv.maxchanends
0x00000014 g   *ABS*      0x00000000 _ZN2XC3PLL10writeValueEj.nstackwords
0x00000000 g   *ABS*      0x00000000 write_sswitch_reg_no_ack.nstackwords
0x00000001 g   *ABS*      0x00000000 _ZN2XC3PLL10writeValueEj.maxcores
0x00000001 g   *ABS*      0x00000000 write_sswitch_reg_no_ack.maxcores
0x00000000 g   *ABS*      0x00000000 _ZN2XC3PLL10writeValueEj.maxtimers
0x00000000 g   *ABS*      0x00000000 write_sswitch_reg_no_ack.maxtimers
0x00000001 g   *ABS*      0x00000000 _ZN2XC3PLL10writeValueEj.maxchanends
0x00000001 g   *ABS*      0x00000000 write_sswitch_reg_no_ack.maxchanends
0x00000006 g   *ABS*      0x00000000 _ZN2XC3PLL9stabilizeEv.nstackwords
0x00000001 g   *ABS*      0x00000000 _ZN2XC3PLL9stabilizeEv.maxcores
0x00000001 g   *ABS*      0x00000000 _ZN2XC3PLL9stabilizeEv.maxtimers
0x00000000 g   *ABS*      0x00000000 _ZN2XC3PLL9stabilizeEv.maxchanends
0x00000016 g   *ABS*      0x00000000 _ZN2XC3PLL5resetEv.nstackwords
0x00000001 g   *ABS*      0x00000000 _ZN2XC3PLL5resetEv.maxcores
0x00000000 g   *ABS*      0x00000000 _ZN2XC3PLL5resetEv.maxtimers
0x00000001 g   *ABS*      0x00000000 _ZN2XC3PLL5resetEv.maxchanends
0x00000006 g   *ABS*      0x00000000 XCwaitTimeAfter.nstackwords
0x00000001 g   *ABS*      0x00000000 XCwaitTimeAfter.maxcores
0x00000001 g   *ABS*      0x00000000 XCwaitTimeAfter.maxtimers
0x00000000 g   *ABS*      0x00000000 XCwaitTimeAfter.maxchanends
0x00000006 g   *ABS*      0x00000000 XCdelayTicks.nstackwords
0x00000001 g   *ABS*      0x00000000 XCdelayTicks.maxcores
0x00000001 g   *ABS*      0x00000000 XCdelayTicks.maxtimers
0x00000000 g   *ABS*      0x00000000 XCdelayTicks.maxchanends
0x00000006 g   *ABS*      0x00000000 XCdelaySyncTicks.nstackwords
0x00000001 g   *ABS*      0x00000000 XCdelaySyncTicks.maxcores
0x00000001 g   *ABS*      0x00000000 XCdelaySyncTicks.maxtimers
0x00000000 g   *ABS*      0x00000000 XCdelaySyncTicks.maxchanends
0x00000000 g   *ABS*      0x00000000 XCgetTime64.nstackwords
0x00000001 g   *ABS*      0x00000000 XCgetTime64.maxcores
0x00000000 g   *ABS*      0x00000000 XCgetTime64.maxtimers
0x00000000 g   *ABS*      0x00000000 XCgetTime64.maxchanends
0x00000002 g   *ABS*      0x00000000 XCmicros.nstackwords
0x00000001 g   *ABS*      0x00000000 XCmicros.maxcores
0x00000000 g   *ABS*      0x00000000 XCmicros.maxtimers
0x00000000 g   *ABS*      0x00000000 XCmicros.maxchanends
0x00000002 g   *ABS*      0x00000000 XCmillis.nstackwords
0x00000001 g   *ABS*      0x00000000 XCmillis.maxcores
0x00000000 g   *ABS*      0x00000000 XCmillis.maxtimers
0x00000000 g   *ABS*      0x00000000 XCmillis.maxchanends
0x00000008 g   *ABS*      0x00000000 XCdelayMicros.nstackwords
0x00000001 g   *ABS*      0x00000000 XCdelayMicros.maxcores
0x00000001 g   *ABS*      0x00000000 XCdelayMicros.maxtimers
0x00000000 g   *ABS*      0x00000000 XCdelayMicros.maxchanends
0x00000008 g   *ABS*      0x00000000 XCdelaySyncMicros.nstackwords
0x00000001 g   *ABS*      0x00000000 XCdelaySyncMicros.maxcores
0x00000001 g   *ABS*      0x00000000 XCdelaySyncMicros.maxtimers
0x00000000 g   *ABS*      0x00000000 XCdelaySyncMicros.maxchanends
0x00000002 g   *ABS*      0x00000000 XCsetReferenceHz.nstackwords
0x00000001 g   *ABS*      0x00000000 XCsetReferenceHz.maxcores
0x00000000 g   *ABS*      0x00000000 XCsetReferenceHz.maxtimers
0x00000000 g   *ABS*      0x00000000 XCsetReferenceHz.maxchanends
0x00000000 g   *ABS*      0x00000000 XCgetReferenceHz.nstackwords
0x00000001 g   *ABS*      0x00000000 XCgetReferenceHz.maxcores
0x00000000 g   *ABS*      0x00000000 XCgetReferenceHz.maxtimers
0x00000000 g   *ABS*      0x00000000 XCgetReferenceHz.maxchanends
0x00000016 g   *ABS*      0x00000000 XCPLLwriteValue.nstackwords
0x00000001 g   *ABS*      0x00000000 XCPLLwriteValue.maxcores
0x00000000 g   *ABS*      0x00000000 XCPLLwriteValue.maxtimers
0x00000001 g   *ABS*      0x00000000 XCPLLwriteValue.maxchanends
0x00000004 g   *ABS*      0x00000000 XCPLLreadValue.nstackwords
0x00000001 g   *ABS*      0x00000000 XCPLLreadValue.maxcores
0x00000000 g   *ABS*      0x00000000 XCPLLreadValue.maxtimers
0x00000001 g   *ABS*      0x00000000 XCPLLreadValue.maxchanends
0x00000014 g   *ABS*      0x00000000 XCPLLreadTicks.nstackwords
0x00000001 g   *ABS*      0x00000000 XCPLLreadTicks.maxcores
0x00000000 g   *ABS*      0x00000000 XCPLLreadTicks.maxtimers
0x00000001 g   *ABS*      0x00000000 XCPLLreadTicks.maxchanends
0x00000008 g   *ABS*      0x00000000 XCPLLstabilize.nstackwords
0x00000001 g   *ABS*      0x00000000 XCPLLstabilize.maxcores
0x00000001 g   *ABS*      0x00000000 XCPLLstabilize.maxtimers
0x00000000 g   *ABS*      0x00000000 XCPLLstabilize.maxchanends
0x00000016 g   *ABS*      0x00000000 XCPLLreset.nstackwords
0x00000001 g   *ABS*      0x00000000 XCPLLreset.maxcores
0x00000000 g   *ABS*      0x00000000 XCPLLreset.maxtimers
0x00000001 g   *ABS*      0x00000000 XCPLLreset.maxchanends
0x00000000  w  *ABS*      0x00000000 XCyield.nstackwords
0x00000001  w  *ABS*      0x00000000 XCyield.maxcores
0x00000000  w  *ABS*      0x00000000 XCyield.maxtimers
0x00000000  w  *ABS*      0x00000000 XCyield.maxchanends
0x000801e8 l f .text      0x00000042 _GLOBAL__sub_I_XC_core.cpp
0x0000000e l   *ABS*      0x00000000 _GLOBAL__sub_I_XC_core.cpp.nstackwords
0x00000001 l   *ABS*      0x00000000 _GLOBAL__sub_I_XC_core.cpp.maxcores
0x00000000 l   *ABS*      0x00000000 _GLOBAL__sub_I_XC_core.cpp.maxtimers
0x00000000 l   *ABS*      0x00000000 _GLOBAL__sub_I_XC_core.cpp.maxchanends
0x00080650 l   .dp.data.4 0x00000000 .dp.data.4
0x000806b4 l   .dp.bss.4  0x00000000 .dp.bss.4
0x000806b4 g O .dp.bss.4  0x00000004 _ZN2XC13getTime64LockE
0x00080690 l   .dp.bss    0x00000000 .dp.bss
0x00080690 g O .dp.bss    0x00000008 XCPortUndefined
0x00080698 g O .dp.bss    0x00000008 XCPortBitUndefined
0x000806b8 g O .dp.bss.4  0x00000004 XCChanendUndefined
0x000806a0 g O .dp.bss    0x00000014 XCChanendPortUndefined
0x00080614 l   .ctors     0x00000000 .ctors
0x00000040 l   .trap_info 0x00000000 .trap_info
0x00080618 g O .dp.data   0x00000020 __timers
0x000801d8 l   .text      0x00000000 $s.2378
0x000801e8 l   .text      0x00000000 $s.2396
0x00000000 l F *ABS*      0x00000000 /Users/fabrice/github/XTC/lib_xcpp/tests/xcpp_test/src/main.xc
0x00000048 l   .trap_info 0x00000000 .trap_info
0x00000000 l F *ABS*      0x00000000 _startup.s4FTTa1
0x00080604 l   .cp.const4 0x00000000 .cp.const4
0x000805c0 l   .cp.rodata 0x00000000 .cp.rodata
0x000805c0 l   .cp.rodata 0x00000000 chanends_to_setup
0x000802f4 g f .text      0x0000002c delay_ticks
0x00000000 g   *ABS*      0x00000000 delay_ticks.nstackwords
0x00000001 g   *ABS*      0x00000000 delay_ticks.maxcores
0x00000000 g   *ABS*      0x00000000 delay_ticks.maxtimers
0x00000000 g   *ABS*      0x00000000 delay_ticks.maxchanends
0x00080618 l   .dp.data   0x00000000 .dp.data
0x0008022a l   .text      0x00000000 $s.10
0x00000000 l F *ABS*      0x00000000 get_cmdline.S
0x00000001 l   *ABS*      0x00000000 _get_cmdline.locnochandec
0x00000000 g   *ABS*      0x00000000 _DoSyscall.nstackwords
0x00000000 g   *ABS*      0x00000000 _DoSyscall.maxchanends
0x00000000 g   *ABS*      0x00000000 _DoSyscall.maxtimers
0x00000000 g   *ABS*      0x00000000 _DoSyscall.maxcores
0x00080380 g f .text      0x00000008 _DoSyscall
0x00080284 l   .text      0x00000000 $s.4
0x00000000 l F *ABS*      0x00000000 done.c
0x00000010 g   *ABS*      0x00000000 __call_exitprocs.nstackwords
0x00000002 g   *ABS*      0x00000000 _cleanup.nstackwords
0x00000000 g   *ABS*      0x00000000 _done.nstackwords
0x00000001 g   *ABS*      0x00000000 __call_exitprocs.maxcores
0x00000001 g   *ABS*      0x00000000 _cleanup.maxcores
0x00000000 g   *ABS*      0x00000000 _done.maxcores
0x00000000 g   *ABS*      0x00000000 __call_exitprocs.maxtimers
0x00000000 g   *ABS*      0x00000000 _cleanup.maxtimers
0x00000000 g   *ABS*      0x00000000 _done.maxtimers
0x00000000 g   *ABS*      0x00000000 __call_exitprocs.maxchanends
0x00000000 g   *ABS*      0x00000000 _cleanup.maxchanends
0x00000000 g   *ABS*      0x00000000 _done.maxchanends
0x00080388 g f .text      0x0000000a __call_exitprocs
0x0008039c g f .text      0x0000000a _cleanup
0x000803a8 g f .text      0x0000000e _done
0x00000050 l   .trap_info 0x00000000 .trap_info
0x00080294 l   .text      0x00000000 $s.20
0x00000000 l F *ABS*      0x00000000 exit.c
0x00000000 g   *ABS*      0x00000000 _exit.nstackwords
0x00000000 g   *ABS*      0x00000000 _exit.maxcores
0x00000000 g   *ABS*      0x00000000 _exit.maxtimers
0x00000000 g   *ABS*      0x00000000 _exit.maxchanends
0x0000003a g   *ABS*      0x00000000 exit.nstackwords
0x00000000 g   *ABS*      0x00000000 __lock_fair_try_acquire.nstackwords
0x00000001 g   *ABS*      0x00000000 exit.maxcores
0x00000001 g   *ABS*      0x00000000 __lock_fair_try_acquire.maxcores
0x00000000 g   *ABS*      0x00000000 exit.maxtimers
0x00000000 g   *ABS*      0x00000000 __lock_fair_try_acquire.maxtimers
0x00000000 g   *ABS*      0x00000000 exit.maxchanends
0x00000000 g   *ABS*      0x00000000 __lock_fair_try_acquire.maxchanends
0x000806bc l   .dp.bss.4  0x00000000 .dp.bss.4
0x000803b8 g f .text      0x00000010 _exit
0x00000058 l   .trap_info 0x00000000 .trap_info
0x000802ac l   .text      0x00000000 $s.33
0x00000000 l F *ABS*      0x00000000 exception.S
0x000800c4 l   .crt       0x00000000 .crt
0x00000001 l   *ABS*      0x00000000 _DoException.locnochandec
0x00000001 l   *ABS*      0x00000000 _DoException.locnoglobalaccess
0x00000001 l   *ABS*      0x00000000 _DoException.locnointerfaceaccess
0x00000001 l   *ABS*      0x00000000 _DoException.locnonotificationselect
0x000800c4 l   .crt       0x00000000 $s.5
0x00000000 l F *ABS*      0x00000000 memset.S
0x00080608 l   .cp.rodata.cst4 0x00000000 .cp.rodata.cst4
0x000805c4 l   .cp.rodata 0x00000000 .cp.rodata
0x00000000 g   *ABS*      0x00000000 memset.maxchanends
0x00000000 g   *ABS*      0x00000000 memset.maxtimers
0x00000000 g   *ABS*      0x00000000 memset.maxcores
0x00000001 l   *ABS*      0x00000000 memset.locnochandec
0x00000001 l   *ABS*      0x00000000 memset.locnoglobalaccess
0x00000001 l   *ABS*      0x00000000 memset.locnointerfaceaccess
0x00000001 l   *ABS*      0x00000000 memset.locnonotificationselect
0x000802c8 l   .text      0x00000000 $d.7
0x00000000 l F *ABS*      0x00000000 __init_timers.c
0x00000001 l   *ABS*      0x00000000 __init_threadlocal_timer.locnoside
0x00000001 l   *ABS*      0x00000000 __init_threadlocal_timer.locnochandec
0x00000001 l   *ABS*      0x00000000 __init_threadlocal_timer.locnoglobalaccess
0x00000001 l   *ABS*      0x00000000 __init_threadlocal_timer.locnointerfaceaccess
0x00000001 l   *ABS*      0x00000000 __init_threadlocal_timer.locnonotificationselect
0x00000001 l   *ABS*      0x00000000 __free_threadlocal_timer.locnoside
0x00000001 l   *ABS*      0x00000000 __free_threadlocal_timer.locnochandec
0x00000001 l   *ABS*      0x00000000 __free_threadlocal_timer.locnoglobalaccess
0x00000001 l   *ABS*      0x00000000 __free_threadlocal_timer.locnointerfaceaccess
0x00000001 l   *ABS*      0x00000000 __free_threadlocal_timer.locnonotificationselect
0x00000000 g   *ABS*      0x00000000 __init_threadlocal_timer.nstackwords
0x00000001 g   *ABS*      0x00000000 __init_threadlocal_timer.maxcores
0x00000000 g   *ABS*      0x00000000 __init_threadlocal_timer.maxtimers
0x00000000 g   *ABS*      0x00000000 __init_threadlocal_timer.maxchanends
0x00000000 g   *ABS*      0x00000000 __free_threadlocal_timer.nstackwords
0x00000001 g   *ABS*      0x00000000 __free_threadlocal_timer.maxcores
0x00000000 g   *ABS*      0x00000000 __free_threadlocal_timer.maxtimers
0x00000000 g   *ABS*      0x00000000 __free_threadlocal_timer.maxchanends
0x000802d0 l   .text      0x00000000 $s.6
0x000802e4 l   .text      0x00000000 $s.7
0x00000000 l F *ABS*      0x00000000 xscope_shared_c.c
0x00006ee9 l   .debug_info 0x00000000 .debug_info
0x00000947 l   .debug_abbrev 0x00000000 .debug_abbrev
0x0000065f l   .debug_line 0x00000000 .debug_line
0x0000069e l   .debug_str 0x00000000 .debug_str
0x000008af l   .debug_loc 0x00000000 .debug_loc
0x00000f90 l   .debug_ranges 0x00000000 .debug_ranges
0x00000000 g   *ABS*      0x00000000 xscope_lock_init.nstackwords
0x00000001 g   *ABS*      0x00000000 xscope_lock_init.maxcores
0x00000000 g   *ABS*      0x00000000 xscope_lock_init.maxtimers
0x00000000 g   *ABS*      0x00000000 xscope_lock_init.maxchanends
0x00000000 g   *ABS*      0x00000000 xscope_lock_deinit.nstackwords
0x00000001 g   *ABS*      0x00000000 xscope_lock_deinit.maxcores
0x00000000 g   *ABS*      0x00000000 xscope_lock_deinit.maxtimers
0x00000000 g   *ABS*      0x00000000 xscope_lock_deinit.maxchanends
0x00000000 g   *ABS*      0x00000000 xscope_lock_acquire.nstackwords
0x00000001 g   *ABS*      0x00000000 xscope_lock_acquire.maxcores
0x00000000 g   *ABS*      0x00000000 xscope_lock_acquire.maxtimers
0x00000000 g   *ABS*      0x00000000 xscope_lock_acquire.maxchanends
0x00000000 g   *ABS*      0x00000000 xscope_lock_release.nstackwords
0x00000001 g   *ABS*      0x00000000 xscope_lock_release.maxcores
0x00000000 g   *ABS*      0x00000000 xscope_lock_release.maxtimers
0x00000000 g   *ABS*      0x00000000 xscope_lock_release.maxchanends
0x00000000 g   *ABS*      0x00000000 xscope_set_io_config.nstackwords
0x00000001 g   *ABS*      0x00000000 xscope_set_io_config.maxcores
0x00000000 g   *ABS*      0x00000000 xscope_set_io_config.maxtimers
0x00000000 g   *ABS*      0x00000000 xscope_set_io_config.maxchanends
0x000806bc l   .dp.bss.4  0x00000000 .dp.bss.4
0x00000060 l   .trap_info 0x00000000 .trap_info
0x00000000 l F *ABS*      0x00000000 xscope_syscall_write.S
0x00000001 l   *ABS*      0x00000000 xscope_syscall_write.locnochandec
0x00000001 l   *ABS*      0x00000000 xscope_syscall_write.locnoglobalaccess
0x00000001 l   *ABS*      0x00000000 xscope_syscall_write.locnointerfaceaccess
0x00000001 l   *ABS*      0x00000000 xscope_syscall_write.locnonotificationselect
0x00000002 g   *ABS*      0x00000000 _DoSyscallErrno.nstackwords
0x00000000 g   *ABS*      0x00000000 _DoSyscallErrno.maxchanends
0x00000000 g   *ABS*      0x00000000 _DoSyscallErrno.maxtimers
0x00000001 g   *ABS*      0x00000000 _DoSyscallErrno.maxcores
0x00000000 l F *ABS*      0x00000000 xscope_api.c
0x00007072 l   .debug_info 0x00000000 .debug_info
0x00000a39 l   .debug_abbrev 0x00000000 .debug_abbrev
0x000006dd l   .debug_line 0x00000000 .debug_line
0x0000069e l   .debug_str 0x00000000 .debug_str
0x000008b7 l   .debug_loc 0x00000000 .debug_loc
0x00000fc0 l   .debug_ranges 0x00000000 .debug_ranges
0x00000000  w  *ABS*      0x00000000 xscope_user_init.nstackwords
0x00000001  w  *ABS*      0x00000000 xscope_user_init.maxcores
0x00000000  w  *ABS*      0x00000000 xscope_user_init.maxtimers
0x00000000  w  *ABS*      0x00000000 xscope_user_init.maxchanends
0x00080608 l   .cp.rodata.cst4 0x00000000 .cp.rodata.cst4
0x0000000a g   *ABS*      0x00000000 xscope_constructor.nstackwords
0x00000000 g   *ABS*      0x00000000 xscope_gettime_local_timer.nstackwords
0x00000000 g   *ABS*      0x00000000 xscope_start_ref_clock.nstackwords
0x00000002 g   *ABS*      0x00000000 xscope_tx_init.nstackwords
0x00000002 g   *ABS*      0x00000000 xscope_tx_char.nstackwords
0x00000004 g   *ABS*      0x00000000 xscope_tx_int.nstackwords
0x00000002 g   *ABS*      0x00000000 xscope_tx_end.nstackwords
0x00000002 g   *ABS*      0x00000000 xscope_tx_deinit.nstackwords
0x00000000 g   *ABS*      0x00000000 xscope_wait.nstackwords
0x00000000 g   *ABS*      0x00000000 xscope_stop_ref_clock.nstackwords
0x00000000 g   *ABS*      0x00000000 write_pswitch_reg.nstackwords
0x00000001 g   *ABS*      0x00000000 xscope_constructor.maxcores
0x00000001 g   *ABS*      0x00000000 write_pswitch_reg.maxcores
0x00000001 g   *ABS*      0x00000000 xscope_tx_char.maxcores
0x00000001 g   *ABS*      0x00000000 xscope_tx_deinit.maxcores
0x00000001 g   *ABS*      0x00000000 xscope_tx_end.maxcores
0x00000001 g   *ABS*      0x00000000 xscope_tx_init.maxcores
0x00000001 g   *ABS*      0x00000000 xscope_tx_int.maxcores
0x00000001 g   *ABS*      0x00000000 xscope_wait.maxcores
0x00000001 g   *ABS*      0x00000000 xscope_constructor.maxtimers
0x00000000 g   *ABS*      0x00000000 write_pswitch_reg.maxtimers
0x00000000 g   *ABS*      0x00000000 xscope_tx_char.maxtimers
0x00000000 g   *ABS*      0x00000000 xscope_tx_deinit.maxtimers
0x00000000 g   *ABS*      0x00000000 xscope_tx_end.maxtimers
0x00000000 g   *ABS*      0x00000000 xscope_tx_init.maxtimers
0x00000000 g   *ABS*      0x00000000 xscope_tx_int.maxtimers
0x00000001 g   *ABS*      0x00000000 xscope_wait.maxtimers
0x00000001 g   *ABS*      0x00000000 xscope_constructor.maxchanends
0x00000001 g   *ABS*      0x00000000 write_pswitch_reg.maxchanends
0x00000000 g   *ABS*      0x00000000 xscope_tx_char.maxchanends
0x00000000 g   *ABS*      0x00000000 xscope_tx_deinit.maxchanends
0x00000000 g   *ABS*      0x00000000 xscope_tx_end.maxchanends
0x00000000 g   *ABS*      0x00000000 xscope_tx_init.maxchanends
0x00000000 g   *ABS*      0x00000000 xscope_tx_int.maxchanends
0x00000000 g   *ABS*      0x00000000 xscope_wait.maxchanends
0x00000016 g   *ABS*      0x00000000 xscope_register.nstackwords
0x00000001 g   *ABS*      0x00000000 xscope_register.maxcores
0x00000000 g   *ABS*      0x00000000 xscope_register.maxtimers
0x00000000 g   *ABS*      0x00000000 xscope_register.maxchanends
0x00000002 g   *ABS*      0x00000000 xscope_config_io.nstackwords
0x00000001 g   *ABS*      0x00000000 xscope_config_io.maxcores
0x00000000 g   *ABS*      0x00000000 xscope_config_io.maxtimers
0x00000000 g   *ABS*      0x00000000 xscope_config_io.maxchanends
0x00000000 g   *ABS*      0x00000000 xscope_enable.nstackwords
0x00000001 g   *ABS*      0x00000000 xscope_enable.maxcores
0x00000000 g   *ABS*      0x00000000 xscope_enable.maxtimers
0x00000000 g   *ABS*      0x00000000 xscope_enable.maxchanends
0x00000000 g   *ABS*      0x00000000 xscope_disable.nstackwords
0x00000001 g   *ABS*      0x00000000 xscope_disable.maxcores
0x00000000 g   *ABS*      0x00000000 xscope_disable.maxtimers
0x00000000 g   *ABS*      0x00000000 xscope_disable.maxchanends
0x00000002 g   *ABS*      0x00000000 convert_to_int.nstackwords
0x00000000 g   *ABS*      0x00000000 __misaligned_load.nstackwords
0x00000001 g   *ABS*      0x00000000 convert_to_int.maxcores
0x00000000 g   *ABS*      0x00000000 convert_to_int.maxtimers
0x00000000 g   *ABS*      0x00000000 convert_to_int.maxchanends
0x00000004 g   *ABS*      0x00000000 convert_to_longlong.nstackwords
0x00000001 g   *ABS*      0x00000000 convert_to_longlong.maxcores
0x00000000 g   *ABS*      0x00000000 convert_to_longlong.maxtimers
0x00000000 g   *ABS*      0x00000000 convert_to_longlong.maxchanends
0x00000002 g   *ABS*      0x00000000 xscope_float.nstackwords
0x00000000 g   *ABS*      0x00000000 xscope_int.nstackwords
0x00000001 g   *ABS*      0x00000000 xscope_float.maxcores
0x00000001 g   *ABS*      0x00000000 xscope_int.maxcores
0x00000000 g   *ABS*      0x00000000 xscope_float.maxtimers
0x00000000 g   *ABS*      0x00000000 xscope_int.maxtimers
0x00000000 g   *ABS*      0x00000000 xscope_float.maxchanends
0x00000000 g   *ABS*      0x00000000 xscope_int.maxchanends
0x00000003 g   *ABS*      0x00000000 xscope_core_float.nstackwords
0x00000001 g   *ABS*      0x00000000 xscope_core_int.nstackwords
0x00000001 g   *ABS*      0x00000000 xscope_core_float.maxcores
0x00000001 g   *ABS*      0x00000000 xscope_core_int.maxcores
0x00000000 g   *ABS*      0x00000000 xscope_core_float.maxtimers
0x00000000 g   *ABS*      0x00000000 xscope_core_int.maxtimers
0x00000000 g   *ABS*      0x00000000 xscope_core_float.maxchanends
0x00000000 g   *ABS*      0x00000000 xscope_core_int.maxchanends
0x00000002 g   *ABS*      0x00000000 xscope_double.nstackwords
0x00000000 g   *ABS*      0x00000000 xscope_longlong.nstackwords
0x00000001 g   *ABS*      0x00000000 xscope_double.maxcores
0x00000001 g   *ABS*      0x00000000 xscope_longlong.maxcores
0x00000000 g   *ABS*      0x00000000 xscope_double.maxtimers
0x00000000 g   *ABS*      0x00000000 xscope_longlong.maxtimers
0x00000000 g   *ABS*      0x00000000 xscope_double.maxchanends
0x00000000 g   *ABS*      0x00000000 xscope_longlong.maxchanends
0x00000003 g   *ABS*      0x00000000 xscope_core_double.nstackwords
0x00000001 g   *ABS*      0x00000000 xscope_core_longlong.nstackwords
0x00000001 g   *ABS*      0x00000000 xscope_core_double.maxcores
0x00000001 g   *ABS*      0x00000000 xscope_core_longlong.maxcores
0x00000000 g   *ABS*      0x00000000 xscope_core_double.maxtimers
0x00000000 g   *ABS*      0x00000000 xscope_core_longlong.maxtimers
0x00000000 g   *ABS*      0x00000000 xscope_core_double.maxchanends
0x00000000 g   *ABS*      0x00000000 xscope_core_longlong.maxchanends
0x00000002 g   *ABS*      0x00000000 xscope_start.nstackwords
0x00000000 g   *ABS*      0x00000000 xscope_start_int.nstackwords
0x00000001 g   *ABS*      0x00000000 xscope_start.maxcores
0x00000001 g   *ABS*      0x00000000 xscope_start_int.maxcores
0x00000000 g   *ABS*      0x00000000 xscope_start.maxtimers
0x00000000 g   *ABS*      0x00000000 xscope_start_int.maxtimers
0x00000000 g   *ABS*      0x00000000 xscope_start.maxchanends
0x00000000 g   *ABS*      0x00000000 xscope_start_int.maxchanends
0x00000003 g   *ABS*      0x00000000 xscope_core_start.nstackwords
0x00000001 g   *ABS*      0x00000000 xscope_core_start_int.nstackwords
0x00000001 g   *ABS*      0x00000000 xscope_core_start.maxcores
0x00000001 g   *ABS*      0x00000000 xscope_core_start_int.maxcores
0x00000000 g   *ABS*      0x00000000 xscope_core_start.maxtimers
0x00000000 g   *ABS*      0x00000000 xscope_core_start_int.maxtimers
0x00000000 g   *ABS*      0x00000000 xscope_core_start.maxchanends
0x00000000 g   *ABS*      0x00000000 xscope_core_start_int.maxchanends
0x00000002 g   *ABS*      0x00000000 xscope_stop.nstackwords
0x00000000 g   *ABS*      0x00000000 xscope_stop_int.nstackwords
0x00000001 g   *ABS*      0x00000000 xscope_stop.maxcores
0x00000001 g   *ABS*      0x00000000 xscope_stop_int.maxcores
0x00000000 g   *ABS*      0x00000000 xscope_stop.maxtimers
0x00000000 g   *ABS*      0x00000000 xscope_stop_int.maxtimers
0x00000000 g   *ABS*      0x00000000 xscope_stop.maxchanends
0x00000000 g   *ABS*      0x00000000 xscope_stop_int.maxchanends
0x00000003 g   *ABS*      0x00000000 xscope_core_stop.nstackwords
0x00000001 g   *ABS*      0x00000000 xscope_core_stop_int.nstackwords
0x00000001 g   *ABS*      0x00000000 xscope_core_stop.maxcores
0x00000001 g   *ABS*      0x00000000 xscope_core_stop_int.maxcores
0x00000000 g   *ABS*      0x00000000 xscope_core_stop.maxtimers
0x00000000 g   *ABS*      0x00000000 xscope_core_stop_int.maxtimers
0x00000000 g   *ABS*      0x00000000 xscope_core_stop.maxchanends
0x00000000 g   *ABS*      0x00000000 xscope_core_stop_int.maxchanends
0x00000012 g   *ABS*      0x00000000 xscope_bytes.nstackwords
0x00000000 g   *ABS*      0x00000000 xscope_gettime.nstackwords
0x00000001 g   *ABS*      0x00000000 xscope_bytes.maxcores
0x00000000 g   *ABS*      0x00000000 xscope_bytes.maxtimers
0x00000000 g   *ABS*      0x00000000 xscope_bytes.maxchanends
0x00000014 g   *ABS*      0x00000000 xscope_core_bytes.nstackwords
0x00000001 g   *ABS*      0x00000000 xscope_core_bytes.maxcores
0x00000000 g   *ABS*      0x00000000 xscope_core_bytes.maxtimers
0x00000000 g   *ABS*      0x00000000 xscope_core_bytes.maxchanends
0x0000000a g   *ABS*      0x00000000 xscope_syscall_data.nstackwords
0x00000001 g   *ABS*      0x00000000 xscope_syscall_data.maxcores
0x00000000 g   *ABS*      0x00000000 xscope_syscall_data.maxtimers
0x00000000 g   *ABS*      0x00000000 xscope_syscall_data.maxchanends
0x00080638 g   .dp.data   0x00000000 __sodFlag
0x00000068 l   .trap_info 0x00000000 .trap_info
0x00000000 l F *ABS*      0x00000000 timer.xc
0x00000000 l   *ABS*      0x00000000 delay_ticks_longlong.locnoside
0x00000000 l   *ABS*      0x00000000 delay_ticks.locnoside
0x00080608 l   .cp.rodata.cst4 0x00000000 .cp.rodata.cst4
0x0000001a g   *ABS*      0x00000000 delay_ticks_longlong.nstackwords
0x00000001 g   *ABS*      0x00000000 delay_ticks_longlong.maxcores
0x00000000 g   *ABS*      0x00000000 delay_ticks_longlong.maxtimers
0x00000000 g   *ABS*      0x00000000 delay_ticks_longlong.maxchanends
0x0000001c g   *ABS*      0x00000000 delay_seconds.nstackwords
0x00000001 g   *ABS*      0x00000000 delay_seconds.maxcores
0x00000000 g   *ABS*      0x00000000 delay_seconds.maxtimers
0x00000000 g   *ABS*      0x00000000 delay_seconds.maxchanends
0x0000001c g   *ABS*      0x00000000 delay_milliseconds.nstackwords
0x00000001 g   *ABS*      0x00000000 delay_milliseconds.maxcores
0x00000000 g   *ABS*      0x00000000 delay_milliseconds.maxtimers
0x00000000 g   *ABS*      0x00000000 delay_milliseconds.maxchanends
0x0000001c g   *ABS*      0x00000000 delay_microseconds.nstackwords
0x00000001 g   *ABS*      0x00000000 delay_microseconds.maxcores
0x00000000 g   *ABS*      0x00000000 delay_microseconds.maxtimers
0x00000000 g   *ABS*      0x00000000 delay_microseconds.maxchanends
0x000000cf l   .xtacalltable 0x00000000 .xtacalltable
0x00000000 l   .xtaendpointtable 0x00000000 .xtaendpointtable
0x00000000 l   .xtalabeltable 0x00000000 .xtalabeltable
0x00000000 l   .xtalooplabeltable 0x00000000 .xtalooplabeltable
0x00000070 l   .trap_info 0x00000000 .trap_info
0x000802f4 l   .text      0x00000000 $s.62
0x00000000 l F *ABS*      0x00000000 __start_other_cores.S
0x00080400 g f .text      0x00000016 __start_core
0x00080320 l   .text      0x00000000 $s.2
0x00000000 l F *ABS*      0x00000000 atexit.c
0x00000008 g   *ABS*      0x00000000 __register_exitproc.nstackwords
0x00000001 g   *ABS*      0x00000000 __register_exitproc.maxcores
0x00000000 g   *ABS*      0x00000000 __register_exitproc.maxtimers
0x00000000 g   *ABS*      0x00000000 __register_exitproc.maxchanends
0x00080418 g f .text      0x000000a0 __register_exitproc
0x00000078 l   .trap_info 0x00000000 .trap_info
0x0008036c l   .text      0x00000000 $s.8
0x00000000 l F *ABS*      0x00000000 strlen.c
0x00000080 l   .trap_info 0x00000000 .trap_info
0x00000000 l F *ABS*      0x00000000 memcpy.S
0x000805c8 l   .cp.rodata 0x00000000 .cp.rodata
0x00000000 g   *ABS*      0x00000000 memcpy.maxchanends
0x00000000 g   *ABS*      0x00000000 memcpy.maxtimers
0x00000000 g   *ABS*      0x00000000 memcpy.maxcores
0x00000001 l   *ABS*      0x00000000 memcpy.locnochandec
0x00000001 l   *ABS*      0x00000000 memcpy.locnoglobalaccess
0x00000001 l   *ABS*      0x00000000 memcpy.locnointerfaceaccess
0x00000001 l   *ABS*      0x00000000 memcpy.locnonotificationselect
0x00000003 g   *ABS*      0x00000000 __memcpy_4.nstackwords
0x00000000 g   *ABS*      0x00000000 __memcpy_4.maxchanends
0x00000000 g   *ABS*      0x00000000 __memcpy_4.maxtimers
0x00000000 g   *ABS*      0x00000000 __memcpy_4.maxcores
0x00000001 l   *ABS*      0x00000000 __memcpy_4.locnochandec
0x00000001 l   *ABS*      0x00000000 __memcpy_4.locnoglobalaccess
0x00000001 l   *ABS*      0x00000000 __memcpy_4.locnointerfaceaccess
0x00000001 l   *ABS*      0x00000000 __memcpy_4.locnonotificationselect
0x00000000 g   *ABS*      0x00000000 memmove.nstackwords
0x00000000 g   *ABS*      0x00000000 memmove.maxchanends
0x00000000 g   *ABS*      0x00000000 memmove.maxtimers
0x00000000 g   *ABS*      0x00000000 memmove.maxcores
0x00000001 l   *ABS*      0x00000000 memmove.locnochandec
0x00000001 l   *ABS*      0x00000000 memmove.locnoglobalaccess
0x00000001 l   *ABS*      0x00000000 memmove.locnointerfaceaccess
0x00000001 l   *ABS*      0x00000000 memmove.locnonotificationselect
0x00000000 l F *ABS*      0x00000000 ctype_.c
0x000805cc l   .cp.rodata 0x00000000 .cp.rodata
0x00000101 g   *ABS*      0x00000000 _ctype_.globound
0x00080650 l   .dp.data.4 0x00000000 .dp.data.4
0x00000088 l   .trap_info 0x00000000 .trap_info
0x00000000 l F *ABS*      0x00000000 udivdi3.c
0x0000000c g   *ABS*      0x00000000 __udivmoddi4.nstackwords
0x00000001 g   *ABS*      0x00000000 __udivdi3.maxcores
0x00000001 g   *ABS*      0x00000000 __udivmoddi4.maxcores
0x00000000 g   *ABS*      0x00000000 __udivdi3.maxtimers
0x00000000 g   *ABS*      0x00000000 __udivmoddi4.maxtimers
0x00000000 g   *ABS*      0x00000000 __udivdi3.maxchanends
0x00000000 g   *ABS*      0x00000000 __udivmoddi4.maxchanends
0x00000090 l   .trap_info 0x00000000 .trap_info
0x00000000 l F *ABS*      0x00000000 switch_reg.S
0x00000000 l   *ABS*      0x00000000 read_switch_reg.nstackwords
0x00000000 l   *ABS*      0x00000000 return_zero.nstackwords
0x00000001 l   *ABS*      0x00000000 read_switch_reg.maxcores
0x00000001 l   *ABS*      0x00000000 return_zero.maxcores
0x00000000 l   *ABS*      0x00000000 read_switch_reg.maxtimers
0x00000000 l   *ABS*      0x00000000 return_zero.maxtimers
0x00000001 l   *ABS*      0x00000000 read_switch_reg.maxchanends
0x00000000 l   *ABS*      0x00000000 return_zero.maxchanends
0x00000000 l   *ABS*      0x00000000 read_sswitch_reg.locnoside
0x00000001 l   *ABS*      0x00000000 read_sswitch_reg.locnochandec
0x00000001 l   *ABS*      0x00000000 read_sswitch_reg.locnoglobalaccess
0x00000001 l   *ABS*      0x00000000 read_sswitch_reg.locnointerfaceaccess
0x00000001 l   *ABS*      0x00000000 read_sswitch_reg.locnonotificationselect
0x00000000 g   *ABS*      0x00000000 read_pswitch_reg.nstackwords
0x00000001 g   *ABS*      0x00000000 read_pswitch_reg.maxcores
0x00000000 g   *ABS*      0x00000000 read_pswitch_reg.maxtimers
0x00000001 g   *ABS*      0x00000000 read_pswitch_reg.maxchanends
0x00000000 l   *ABS*      0x00000000 read_pswitch_reg.locnoside
0x00000001 l   *ABS*      0x00000000 read_pswitch_reg.locnochandec
0x00000001 l   *ABS*      0x00000000 read_pswitch_reg.locnoglobalaccess
0x00000001 l   *ABS*      0x00000000 read_pswitch_reg.locnointerfaceaccess
0x00000001 l   *ABS*      0x00000000 read_pswitch_reg.locnonotificationselect
0x00000000 l   *ABS*      0x00000000 read_switch_reg.locnoside
0x00000001 l   *ABS*      0x00000000 read_switch_reg.locnochandec
0x00000001 l   *ABS*      0x00000000 read_switch_reg.locnoglobalaccess
0x00000001 l   *ABS*      0x00000000 read_switch_reg.locnointerfaceaccess
0x00000001 l   *ABS*      0x00000000 read_switch_reg.locnonotificationselect
0x00000000 g   *ABS*      0x00000000 write_sswitch_reg.nstackwords
0x00000000 l   *ABS*      0x00000000 write_switch_reg.nstackwords
0x00000001 g   *ABS*      0x00000000 write_sswitch_reg.maxcores
0x00000001 l   *ABS*      0x00000000 write_switch_reg.maxcores
0x00000000 g   *ABS*      0x00000000 write_sswitch_reg.maxtimers
0x00000000 l   *ABS*      0x00000000 write_switch_reg.maxtimers
0x00000001 g   *ABS*      0x00000000 write_sswitch_reg.maxchanends
0x00000001 l   *ABS*      0x00000000 write_switch_reg.maxchanends
0x00000000 l   *ABS*      0x00000000 write_sswitch_reg.locnoside
0x00000001 l   *ABS*      0x00000000 write_sswitch_reg.locnochandec
0x00000001 l   *ABS*      0x00000000 write_sswitch_reg.locnoglobalaccess
0x00000001 l   *ABS*      0x00000000 write_sswitch_reg.locnointerfaceaccess
0x00000001 l   *ABS*      0x00000000 write_sswitch_reg.locnonotificationselect
0x00000000 l   *ABS*      0x00000000 write_pswitch_reg.locnoside
0x00000001 l   *ABS*      0x00000000 write_pswitch_reg.locnochandec
0x00000001 l   *ABS*      0x00000000 write_pswitch_reg.locnoglobalaccess
0x00000001 l   *ABS*      0x00000000 write_pswitch_reg.locnointerfaceaccess
0x00000001 l   *ABS*      0x00000000 write_pswitch_reg.locnonotificationselect
0x00000000 l   *ABS*      0x00000000 write_sswitch_reg_no_ack.locnoside
0x00000001 l   *ABS*      0x00000000 write_sswitch_reg_no_ack.locnochandec
0x00000001 l   *ABS*      0x00000000 write_sswitch_reg_no_ack.locnoglobalaccess
0x00000001 l   *ABS*      0x00000000 write_sswitch_reg_no_ack.locnointerfaceaccess
0x00000001 l   *ABS*      0x00000000 write_sswitch_reg_no_ack.locnonotificationselect
0x00000000 g   *ABS*      0x00000000 write_pswitch_reg_no_ack.nstackwords
0x00000001 g   *ABS*      0x00000000 write_pswitch_reg_no_ack.maxcores
0x00000000 g   *ABS*      0x00000000 write_pswitch_reg_no_ack.maxtimers
0x00000001 g   *ABS*      0x00000000 write_pswitch_reg_no_ack.maxchanends
0x00000000 l   *ABS*      0x00000000 write_pswitch_reg_no_ack.locnoside
0x00000001 l   *ABS*      0x00000000 write_pswitch_reg_no_ack.locnochandec
0x00000001 l   *ABS*      0x00000000 write_pswitch_reg_no_ack.locnoglobalaccess
0x00000001 l   *ABS*      0x00000000 write_pswitch_reg_no_ack.locnointerfaceaccess
0x00000001 l   *ABS*      0x00000000 write_pswitch_reg_no_ack.locnonotificationselect
0x00000000 l   *ABS*      0x00000000 write_switch_reg.locnoside
0x00000001 l   *ABS*      0x00000000 write_switch_reg.locnochandec
0x00000001 l   *ABS*      0x00000000 write_switch_reg.locnoglobalaccess
0x00000001 l   *ABS*      0x00000000 write_switch_reg.locnointerfaceaccess
0x00000001 l   *ABS*      0x00000000 write_switch_reg.locnonotificationselect
0x00000001 l   *ABS*      0x00000000 return_zero.locnoside
0x00000001 l   *ABS*      0x00000000 return_zero.locnochandec
0x00000001 l   *ABS*      0x00000000 return_zero.locnoglobalaccess
0x00000001 l   *ABS*      0x00000000 return_zero.locnointerfaceaccess
0x00000001 l   *ABS*      0x00000000 return_zero.locnonotificationselect
0x00000000 l   *ABS*      0x00000000 get_local_tile_id.locnoside
0x00000001 l   *ABS*      0x00000000 get_local_tile_id.locnochandec
0x00000001 l   *ABS*      0x00000000 get_local_tile_id.locnoglobalaccess
0x00000001 l   *ABS*      0x00000000 get_local_tile_id.locnointerfaceaccess
0x00000001 l   *ABS*      0x00000000 get_local_tile_id.locnonotificationselect
0x00008003 g   *ABS*      0x00000000 _local_tile_id
0x00000000 l F *ABS*      0x00000000 __timers.xc
0x00080618 l   .dp.data   0x00000000 .dp.data
0x00000008 g   *ABS*      0x00000000 __timers.globound
0x000806b4 l   .dp.bss    0x00000000 .dp.bss
0x00000008 g   *ABS*      0x00000000 __timer_base.globound
0x00000008 g   *ABS*      0x00000000 __timer_delta.globound
0x00000098 l   .trap_info 0x00000000 .trap_info
0x00000000 l F *ABS*      0x00000000 syscall.S
0x00080380 l   .text      0x00000000 $s.4
0x00000000 l F *ABS*      0x00000000 __call_atexit.c
0x000804b8 g f .text      0x000000cc __call_exitprocs_impl
0x0000000e g   *ABS*      0x00000000 __call_exitprocs_impl.nstackwords
0x00000001 g   *ABS*      0x00000000 __call_exitprocs_impl.maxcores
0x00000000 g   *ABS*      0x00000000 __call_exitprocs_impl.maxtimers
0x00000000 g   *ABS*      0x00000000 __call_exitprocs_impl.maxchanends
0x000000a0 l   .trap_info 0x00000000 .trap_info
0x00080388 l   .text      0x00000000 $s.12
0x00000000 l F *ABS*      0x00000000 cleanup.c
0x00080394  wf .text      0x00000008 _cleanup_impl
0x00000000  w  *ABS*      0x00000000 _cleanup_impl.nstackwords
0x00000001  w  *ABS*      0x00000000 _cleanup_impl.maxcores
0x00000000  w  *ABS*      0x00000000 _cleanup_impl.maxtimers
0x00000000  w  *ABS*      0x00000000 _cleanup_impl.maxchanends
0x000000a8 l   .trap_info 0x00000000 .trap_info
0x00080394 l   .text      0x00000000 $s.11
0x0008039c l   .text      0x00000000 $s.12
0x00000000 l F *ABS*      0x00000000 done.S
0x00000001 l   *ABS*      0x00000000 _done.locnochandec
0x00000001 l   *ABS*      0x00000000 _done.locnoglobalaccess
0x00000001 l   *ABS*      0x00000000 _done.locnointerfaceaccess
0x00000001 l   *ABS*      0x00000000 _done.locnonotificationselect
0x000803a8 l   .text      0x00000000 $s.5
0x00000000 l F *ABS*      0x00000000 exit.S
0x00000001 l   *ABS*      0x00000000 _exit.locnochandec
0x00000001 l   *ABS*      0x00000000 _exit.locnoglobalaccess
0x00000001 l   *ABS*      0x00000000 _exit.locnointerfaceaccess
0x00000001 l   *ABS*      0x00000000 _exit.locnonotificationselect
0x000803b8 l   .text      0x00000000 $s.5
0x00000000 l F *ABS*      0x00000000 lock.c
0x00000000 g   *ABS*      0x00000000 __free_libc_hwlock.nstackwords
0x00000001 g   *ABS*      0x00000000 __free_libc_hwlock.maxcores
0x00000000 g   *ABS*      0x00000000 __free_libc_hwlock.maxtimers
0x00000000 g   *ABS*      0x00000000 __free_libc_hwlock.maxchanends
0x00000000 g   *ABS*      0x00000000 __lock_simple_init.nstackwords
0x00000001 g   *ABS*      0x00000000 __lock_simple_init.maxcores
0x00000000 g   *ABS*      0x00000000 __lock_simple_init.maxtimers
0x00000000 g   *ABS*      0x00000000 __lock_simple_init.maxchanends
0x00000000 g   *ABS*      0x00000000 __lock_simple_close.nstackwords
0x00000001 g   *ABS*      0x00000000 __lock_simple_close.maxcores
0x00000000 g   *ABS*      0x00000000 __lock_simple_close.maxtimers
0x00000000 g   *ABS*      0x00000000 __lock_simple_close.maxchanends
0x00000000 g   *ABS*      0x00000000 __lock_simple_acquire.nstackwords
0x00000001 g   *ABS*      0x00000000 __lock_simple_acquire.maxcores
0x00000000 g   *ABS*      0x00000000 __lock_simple_acquire.maxtimers
0x00000000 g   *ABS*      0x00000000 __lock_simple_acquire.maxchanends
0x00000000 g   *ABS*      0x00000000 __lock_simple_try_acquire.nstackwords
0x00000001 g   *ABS*      0x00000000 __lock_simple_try_acquire.maxcores
0x00000000 g   *ABS*      0x00000000 __lock_simple_try_acquire.maxtimers
0x00000000 g   *ABS*      0x00000000 __lock_simple_try_acquire.maxchanends
0x00000000 g   *ABS*      0x00000000 __lock_simple_release.nstackwords
0x00000001 g   *ABS*      0x00000000 __lock_simple_release.maxcores
0x00000000 g   *ABS*      0x00000000 __lock_simple_release.maxtimers
0x00000000 g   *ABS*      0x00000000 __lock_simple_release.maxchanends
0x00000000 g   *ABS*      0x00000000 __lock_fair_init.nstackwords
0x00000001 g   *ABS*      0x00000000 __lock_fair_init.maxcores
0x00000000 g   *ABS*      0x00000000 __lock_fair_init.maxtimers
0x00000000 g   *ABS*      0x00000000 __lock_fair_init.maxchanends
0x00000000 g   *ABS*      0x00000000 __lock_fair_close.nstackwords
0x00000001 g   *ABS*      0x00000000 __lock_fair_close.maxcores
0x00000000 g   *ABS*      0x00000000 __lock_fair_close.maxtimers
0x00000000 g   *ABS*      0x00000000 __lock_fair_close.maxchanends
0x000803d4 g f .text      0x00000020 __lock_fair_acquire
0x00000000 g   *ABS*      0x00000000 __lock_fair_acquire.nstackwords
0x00000001 g   *ABS*      0x00000000 __lock_fair_acquire.maxcores
0x00000000 g   *ABS*      0x00000000 __lock_fair_acquire.maxtimers
0x00000000 g   *ABS*      0x00000000 __lock_fair_acquire.maxchanends
0x000803f4 g f .text      0x0000000c __lock_fair_release
0x00000000 g   *ABS*      0x00000000 __lock_fair_release.nstackwords
0x00000001 g   *ABS*      0x00000000 __lock_fair_release.maxcores
0x00000000 g   *ABS*      0x00000000 __lock_fair_release.maxtimers
0x00000000 g   *ABS*      0x00000000 __lock_fair_release.maxchanends
0x00000000 g   *ABS*      0x00000000 __lock_recursive_init.nstackwords
0x00000001 g   *ABS*      0x00000000 __lock_recursive_init.maxcores
0x00000000 g   *ABS*      0x00000000 __lock_recursive_init.maxtimers
0x00000000 g   *ABS*      0x00000000 __lock_recursive_init.maxchanends
0x00000000 g   *ABS*      0x00000000 __lock_recursive_close.nstackwords
0x00000001 g   *ABS*      0x00000000 __lock_recursive_close.maxcores
0x00000000 g   *ABS*      0x00000000 __lock_recursive_close.maxtimers
0x00000000 g   *ABS*      0x00000000 __lock_recursive_close.maxchanends
0x00000000 g   *ABS*      0x00000000 __lock_recursive_acquire.nstackwords
0x00000001 g   *ABS*      0x00000000 __lock_recursive_acquire.maxcores
0x00000000 g   *ABS*      0x00000000 __lock_recursive_acquire.maxtimers
0x00000000 g   *ABS*      0x00000000 __lock_recursive_acquire.maxchanends
0x00000000 g   *ABS*      0x00000000 __lock_recursive_try_acquire.nstackwords
0x00000001 g   *ABS*      0x00000000 __lock_recursive_try_acquire.maxcores
0x00000000 g   *ABS*      0x00000000 __lock_recursive_try_acquire.maxtimers
0x00000000 g   *ABS*      0x00000000 __lock_recursive_try_acquire.maxchanends
0x00000000 g   *ABS*      0x00000000 __lock_recursive_release.nstackwords
0x00000001 g   *ABS*      0x00000000 __lock_recursive_release.maxcores
0x00000000 g   *ABS*      0x00000000 __lock_recursive_release.maxtimers
0x00000000 g   *ABS*      0x00000000 __lock_recursive_release.maxchanends
0x000806bc l   .dp.bss.4  0x00000000 .dp.bss.4
0x000806bc g O .dp.bss.4  0x00000004 __libc_hwlock
0x000000b0 l   .trap_info 0x00000000 .trap_info
0x000803c8 l   .text      0x00000000 $s.54
0x000803d4 l   .text      0x00000000 $s.63
0x000803f4 l   .text      0x00000000 $s.65
0x00000000 l F *ABS*      0x00000000 xscope_shared_s.s
0x00080638 l   .dp.data   0x00000000 .dp.data
0x00000000 l F *ABS*      0x00000000 syscallerrno.S
0x00000000 g   *ABS*      0x00000000 __errno.nstackwords
0x00000000 g   *ABS*      0x00000000 __errno.maxchanends
0x00000000 g   *ABS*      0x00000000 __errno.maxtimers
0x00000001 g   *ABS*      0x00000000 __errno.maxcores
0x00000000 l F *ABS*      0x00000000 xscope_constructor.S
0x00080638 l   .dp.data   0x00000000 .dp.data
0x00080618 l   .ctors     0x00000000 .ctors
0x00000000 l F *ABS*      0x00000000 xscope_shared_xc.xc
0x00000000 l   *ABS*      0x00000000 usage.anon.0
0x00000000 l   *ABS*      0x00000000 usage.anon.1
0x00000000 l   *ABS*      0x00000000 usage.anon.2
0x00000000 l   *ABS*      0x00000000 xscope_gettime.locnoside
0x00000000 l   *ABS*      0x00000000 xscope_gettime_local_timer.locnoside
0x00000000 l   *ABS*      0x00000000 xscope_wait.locnoside
0x00000000 l   *ABS*      0x00000000 xscope_data_from_host.locnoside
0x00000000 l   *ABS*      0x00000000 xscope_connect_data_from_host.locnoside
0x00000000 l   *ABS*      0x00000000 xscope_gettime.locnoglobalaccess
0x00000000 l   *ABS*      0x00000000 xscope_start_ref_clock.locnoglobalaccess
0x00000000 l   *ABS*      0x00000000 xscope_stop_ref_clock.locnoglobalaccess
0x00007772 l   .debug_info 0x00000000 .debug_info
0x00000ba7 l   .debug_abbrev 0x00000000 .debug_abbrev
0x000007e6 l   .debug_line 0x00000000 .debug_line
0x00000668 l   .debug_str 0x00000000 .debug_str
0x00000a2f l   .debug_loc 0x00000000 .debug_loc
0x00001078 l   .debug_ranges 0x00000000 .debug_ranges
0x00000004 g   *ABS*      0x00000000 xscope_data_from_host.nstackwords
0x00000001 g   *ABS*      0x00000000 xscope_data_from_host.maxcores
0x00000000 g   *ABS*      0x00000000 xscope_data_from_host.maxtimers
0x00000000 g   *ABS*      0x00000000 xscope_data_from_host.maxchanends
0x00000004 g   *ABS*      0x00000000 xscope_connect_data_from_host.nstackwords
0x00000001 g   *ABS*      0x00000000 xscope_connect_data_from_host.maxcores
0x00000000 g   *ABS*      0x00000000 xscope_connect_data_from_host.maxtimers
0x00000000 g   *ABS*      0x00000000 xscope_connect_data_from_host.maxchanends
0x00000000 l   *ABS*      0x00000000 xscope_tmr.ctor.nstackwords
0x00000001 l   *ABS*      0x00000000 xscope_tmr.ctor.maxcores
0x00000000 l   *ABS*      0x00000000 xscope_tmr.ctor.maxchanends
0x00000000 l   *ABS*      0x00000000 xscope_tmr.dtor.nstackwords
0x00000001 l   *ABS*      0x00000000 xscope_tmr.dtor.maxcores
0x00000000 l   *ABS*      0x00000000 xscope_tmr.dtor.maxchanends
0x00000001 g   *ABS*      0x00000000 xscope_gettime.maxcores
0x00000000 g   *ABS*      0x00000000 xscope_gettime.maxtimers
0x00000000 g   *ABS*      0x00000000 xscope_gettime.maxchanends
0x00000001 g   *ABS*      0x00000000 xscope_gettime_local_timer.maxcores
0x00000000 g   *ABS*      0x00000000 xscope_gettime_local_timer.maxtimers
0x00000000 g   *ABS*      0x00000000 xscope_gettime_local_timer.maxchanends
0x00000001 g   *ABS*      0x00000000 xscope_start_ref_clock.maxcores
0x00000000 g   *ABS*      0x00000000 xscope_start_ref_clock.maxtimers
0x00000000 g   *ABS*      0x00000000 xscope_start_ref_clock.maxchanends
0x00000001 g   *ABS*      0x00000000 xscope_stop_ref_clock.maxcores
0x00000000 g   *ABS*      0x00000000 xscope_stop_ref_clock.maxtimers
0x00000000 g   *ABS*      0x00000000 xscope_stop_ref_clock.maxchanends
0x000806c0 l   .dp.bss.4  0x00000000 .dp.bss.4
0x00080650 l   .dp.data.4 0x00000000 .dp.data.4
0x00080618 l   .ctors     0x00000000 .ctors
0x00080618 l   .dtors     0x00000000 .dtors
0x00000131 l   .xtacalltable 0x00000000 .xtacalltable
0x00000084 l   .xtaendpointtable 0x00000000 .xtaendpointtable
0x000000a1 l   .xtalabeltable 0x00000000 .xtalabeltable
0x00000062 l   .xtalooplabeltable 0x00000000 .xtalooplabeltable
0x000000b8 l   .trap_info 0x00000000 .trap_info
0x0000003c l   .trap_info_str 0x00000000 .trap_info_str
0x00000000 l F *ABS*      0x00000000 xscope_api_xlink_tx.c
0x00000002 g   *ABS*      0x00000000 xscope_xlink_put_char.nstackwords
0x00000000 g   *ABS*      0x00000000 xscope_xlink_put_ch.nstackwords
0x00000001 g   *ABS*      0x00000000 xscope_xlink_put_char.maxcores
0x00000001 g   *ABS*      0x00000000 xscope_xlink_put_ch.maxcores
0x00000000 g   *ABS*      0x00000000 xscope_xlink_put_char.maxtimers
0x00000000 g   *ABS*      0x00000000 xscope_xlink_put_ch.maxtimers
0x00000000 g   *ABS*      0x00000000 xscope_xlink_put_char.maxchanends
0x00000000 g   *ABS*      0x00000000 xscope_xlink_put_ch.maxchanends
0x00000004 g   *ABS*      0x00000000 xscope_xlink_put_short.nstackwords
0x00000001 g   *ABS*      0x00000000 xscope_xlink_put_short.maxcores
0x00000000 g   *ABS*      0x00000000 xscope_xlink_put_short.maxtimers
0x00000000 g   *ABS*      0x00000000 xscope_xlink_put_short.maxchanends
0x00000004 g   *ABS*      0x00000000 xscope_xlink_put_int.nstackwords
0x00000001 g   *ABS*      0x00000000 xscope_xlink_put_int.maxcores
0x00000000 g   *ABS*      0x00000000 xscope_xlink_put_int.maxtimers
0x00000000 g   *ABS*      0x00000000 xscope_xlink_put_int.maxchanends
0x00000004 g   *ABS*      0x00000000 xscope_tx_short.nstackwords
0x00000001 g   *ABS*      0x00000000 xscope_tx_short.maxcores
0x00000000 g   *ABS*      0x00000000 xscope_tx_short.maxtimers
0x00000000 g   *ABS*      0x00000000 xscope_tx_short.maxchanends
0x00000000 g   *ABS*      0x00000000 xscope_xlink_put_ct.nstackwords
0x00000001 g   *ABS*      0x00000000 xscope_xlink_put_ct.maxcores
0x00000000 g   *ABS*      0x00000000 xscope_xlink_put_ct.maxtimers
0x00000000 g   *ABS*      0x00000000 xscope_xlink_put_ct.maxchanends
0x00000000 g   *ABS*      0x00000000 xscope_xlink_init.nstackwords
0x00000000 g   *ABS*      0x00000000 xscope_xlink_start_token.nstackwords
0x00000001 g   *ABS*      0x00000000 xscope_xlink_init.maxcores
0x00000000 g   *ABS*      0x00000000 xscope_xlink_start_token.maxcores
0x00000000 g   *ABS*      0x00000000 xscope_xlink_init.maxtimers
0x00000000 g   *ABS*      0x00000000 xscope_xlink_start_token.maxtimers
0x00000000 g   *ABS*      0x00000000 xscope_xlink_init.maxchanends
0x00000000 g   *ABS*      0x00000000 xscope_xlink_start_token.maxchanends
0x00000000 g   *ABS*      0x00000000 xscope_xlink_deinit.nstackwords
0x00000001 g   *ABS*      0x00000000 xscope_xlink_deinit.maxcores
0x00000000 g   *ABS*      0x00000000 xscope_xlink_deinit.maxtimers
0x00000000 g   *ABS*      0x00000000 xscope_xlink_deinit.maxchanends
0x000000c0 l   .trap_info 0x00000000 .trap_info
0x00000000 l F *ABS*      0x00000000 misaligned_load.S
0x00000001 g   *ABS*      0x00000000 __misaligned_load.maxcores
0x00000000 g   *ABS*      0x00000000 __misaligned_load.maxtimers
0x00000000 g   *ABS*      0x00000000 __misaligned_load.maxchanends
0x00000000 g   *ABS*      0x00000000 __misaligned_volatile_load.nstackwords
0x00000001 g   *ABS*      0x00000000 __misaligned_volatile_load.maxcores
0x00000000 g   *ABS*      0x00000000 __misaligned_volatile_load.maxtimers
0x00000000 g   *ABS*      0x00000000 __misaligned_volatile_load.maxchanends
0x00000000 l F *ABS*      0x00000000 xscope_probe_xlink.S
0x00000000 g   *ABS*      0x00000000 xscope_ping.nstackwords
0x00000001 g   *ABS*      0x00000000 xscope_ping.maxcores
0x00000000 g   *ABS*      0x00000000 xscope_ping.maxtimers
0x00000000 g   *ABS*      0x00000000 xscope_ping.maxchanends
0x00000000 l   *ABS*      0x00000000 xscope_ping.locnoside
0x00000001 l   *ABS*      0x00000000 xscope_ping.locnochandec
0x00000001 l   *ABS*      0x00000000 xscope_ping.locnoglobalaccess
0x00000001 l   *ABS*      0x00000000 xscope_ping.locnointerfaceaccess
0x00000001 l   *ABS*      0x00000000 xscope_ping.locnonotificationselect
0x00000000 g   *ABS*      0x00000000 xscope_char.nstackwords
0x00000001 g   *ABS*      0x00000000 xscope_char.maxcores
0x00000000 g   *ABS*      0x00000000 xscope_char.maxtimers
0x00000000 g   *ABS*      0x00000000 xscope_char.maxchanends
0x00000000 l   *ABS*      0x00000000 xscope_char.locnoside
0x00000001 l   *ABS*      0x00000000 xscope_char.locnochandec
0x00000001 l   *ABS*      0x00000000 xscope_char.locnoglobalaccess
0x00000001 l   *ABS*      0x00000000 xscope_char.locnointerfaceaccess
0x00000001 l   *ABS*      0x00000000 xscope_char.locnonotificationselect
0x00000000 g   *ABS*      0x00000000 xscope_short.nstackwords
0x00000001 g   *ABS*      0x00000000 xscope_short.maxcores
0x00000000 g   *ABS*      0x00000000 xscope_short.maxtimers
0x00000000 g   *ABS*      0x00000000 xscope_short.maxchanends
0x00000000 l   *ABS*      0x00000000 xscope_short.locnoside
0x00000001 l   *ABS*      0x00000000 xscope_short.locnochandec
0x00000001 l   *ABS*      0x00000000 xscope_short.locnoglobalaccess
0x00000001 l   *ABS*      0x00000000 xscope_short.locnointerfaceaccess
0x00000001 l   *ABS*      0x00000000 xscope_short.locnonotificationselect
0x00000000 l   *ABS*      0x00000000 xscope_int.locnoside
0x00000001 l   *ABS*      0x00000000 xscope_int.locnochandec
0x00000001 l   *ABS*      0x00000000 xscope_int.locnoglobalaccess
0x00000001 l   *ABS*      0x00000000 xscope_int.locnointerfaceaccess
0x00000001 l   *ABS*      0x00000000 xscope_int.locnonotificationselect
0x00000000 l   *ABS*      0x00000000 xscope_longlong.locnoside
0x00000001 l   *ABS*      0x00000000 xscope_longlong.locnochandec
0x00000001 l   *ABS*      0x00000000 xscope_longlong.locnoglobalaccess
0x00000001 l   *ABS*      0x00000000 xscope_longlong.locnointerfaceaccess
0x00000001 l   *ABS*      0x00000000 xscope_longlong.locnonotificationselect
0x00000000 l   *ABS*      0x00000000 xscope_start_int.locnoside
0x00000001 l   *ABS*      0x00000000 xscope_start_int.locnochandec
0x00000001 l   *ABS*      0x00000000 xscope_start_int.locnoglobalaccess
0x00000001 l   *ABS*      0x00000000 xscope_start_int.locnointerfaceaccess
0x00000001 l   *ABS*      0x00000000 xscope_start_int.locnonotificationselect
0x00000000 l   *ABS*      0x00000000 xscope_stop_int.locnoside
0x00000001 l   *ABS*      0x00000000 xscope_stop_int.locnochandec
0x00000001 l   *ABS*      0x00000000 xscope_stop_int.locnoglobalaccess
0x00000001 l   *ABS*      0x00000000 xscope_stop_int.locnointerfaceaccess
0x00000001 l   *ABS*      0x00000000 xscope_stop_int.locnonotificationselect
0x0008063c g   .dp.data   0x00000000 __sodEnd
0x00000000 l F *ABS*      0x00000000 xscope_probe_core_xlink.S
0x00000001 g   *ABS*      0x00000000 xscope_core_char.nstackwords
0x00000001 g   *ABS*      0x00000000 xscope_core_char.maxcores
0x00000000 g   *ABS*      0x00000000 xscope_core_char.maxtimers
0x00000000 g   *ABS*      0x00000000 xscope_core_char.maxchanends
0x00000000 l   *ABS*      0x00000000 xscope_core_char.locnoside
0x00000001 l   *ABS*      0x00000000 xscope_core_char.locnochandec
0x00000001 l   *ABS*      0x00000000 xscope_core_char.locnoglobalaccess
0x00000001 l   *ABS*      0x00000000 xscope_core_char.locnointerfaceaccess
0x00000001 l   *ABS*      0x00000000 xscope_core_char.locnonotificationselect
0x00000001 g   *ABS*      0x00000000 xscope_core_short.nstackwords
0x00000001 g   *ABS*      0x00000000 xscope_core_short.maxcores
0x00000000 g   *ABS*      0x00000000 xscope_core_short.maxtimers
0x00000000 g   *ABS*      0x00000000 xscope_core_short.maxchanends
0x00000000 l   *ABS*      0x00000000 xscope_core_short.locnoside
0x00000001 l   *ABS*      0x00000000 xscope_core_short.locnochandec
0x00000001 l   *ABS*      0x00000000 xscope_core_short.locnoglobalaccess
0x00000001 l   *ABS*      0x00000000 xscope_core_short.locnointerfaceaccess
0x00000001 l   *ABS*      0x00000000 xscope_core_short.locnonotificationselect
0x00000000 l   *ABS*      0x00000000 xscope_core_int.locnoside
0x00000001 l   *ABS*      0x00000000 xscope_core_int.locnochandec
0x00000001 l   *ABS*      0x00000000 xscope_core_int.locnoglobalaccess
0x00000001 l   *ABS*      0x00000000 xscope_core_int.locnointerfaceaccess
0x00000001 l   *ABS*      0x00000000 xscope_core_int.locnonotificationselect
0x00000000 l   *ABS*      0x00000000 xscope_core_longlong.locnoside
0x00000001 l   *ABS*      0x00000000 xscope_core_longlong.locnochandec
0x00000001 l   *ABS*      0x00000000 xscope_core_longlong.locnoglobalaccess
0x00000001 l   *ABS*      0x00000000 xscope_core_longlong.locnointerfaceaccess
0x00000001 l   *ABS*      0x00000000 xscope_core_longlong.locnonotificationselect
0x00000000 l   *ABS*      0x00000000 xscope_core_start_int.locnoside
0x00000001 l   *ABS*      0x00000000 xscope_core_start_int.locnochandec
0x00000001 l   *ABS*      0x00000000 xscope_core_start_int.locnoglobalaccess
0x00000001 l   *ABS*      0x00000000 xscope_core_start_int.locnointerfaceaccess
0x00000001 l   *ABS*      0x00000000 xscope_core_start_int.locnonotificationselect
0x00000000 l   *ABS*      0x00000000 xscope_core_stop_int.locnoside
0x00000001 l   *ABS*      0x00000000 xscope_core_stop_int.locnochandec
0x00000001 l   *ABS*      0x00000000 xscope_core_stop_int.locnoglobalaccess
0x00000001 l   *ABS*      0x00000000 xscope_core_stop_int.locnointerfaceaccess
0x00000001 l   *ABS*      0x00000000 xscope_core_stop_int.locnonotificationselect
0x00000000 l F *ABS*      0x00000000 __start_core.s
0x00080400 l   .text      0x00000000 $s.12
0x00000000 l F *ABS*      0x00000000 __atexit.c
0x00000000 l   *ABS*      0x00000000 _fptrgroup.stdlib_atexit.nstackwords
0x00000001 l   *ABS*      0x00000000 _fptrgroup.stdlib_atexit.maxcores
0x00000000 l   *ABS*      0x00000000 _fptrgroup.stdlib_atexit.maxtimers
0x00000000 l   *ABS*      0x00000000 _fptrgroup.stdlib_atexit.maxchanends
0x00000000 g   *ABS*      0x00000000 __checkFptrGroup.nstackwords
0x000806c0 l   .dp.bss.4  0x00000000 .dp.bss.4
0x000806c0 l O .dp.bss.4  0x00000190 _atexit_fns0
0x00080650 l   .dp.data.4 0x00000000 .dp.data.4
0x00080650 g O .dp.data.4 0x00000004 _atexit_fns
0x00080850 l O .dp.bss.4  0x00000008 __register_exitproc.lock
0x000000c8 l   .trap_info 0x00000000 .trap_info
0x000805cc g   .cp.rodata.4 0x00000000 _fptrgroup.stdlib_atexit.group.begin
0x000805d8 g   .cp.rodata.4 0x00000000 _fptrgroup.stdlib_atexit.group.end
0x00080584 g f .text      0x00000016 __checkFptrGroup
0x00080418 l   .text      0x00000000 $s.26
0x000804b8 l   .text      0x00000000 $s.27
0x00000000 l F *ABS*      0x00000000 udivmoddi4.c
0x00080608 l   .cp.rodata.cst4 0x00000000 .cp.rodata.cst4
0x000000d0 l   .trap_info 0x00000000 .trap_info
0x00000000 l F *ABS*      0x00000000 errno.c
0x00080858 l   .dp.bss.4  0x00000000 .dp.bss.4
0x000000d8 l   .trap_info 0x00000000 .trap_info
0x00000000 l F *ABS*      0x00000000 xscope_tx_xlink.S
0x00000000 g   *ABS*      0x00000000 xscope_xlink_close.nstackwords
0x00000000 g   *ABS*      0x00000000 xscope_xlink_close.maxtimers
0x00000000 g   *ABS*      0x00000000 xscope_xlink_close.maxchanends
0x00000001 g   *ABS*      0x00000000 xscope_xlink_close.maxcores
0x00000000 g   *ABS*      0x00000000 xscope_mode_lossy.nstackwords
0x00000000 g   *ABS*      0x00000000 xscope_mode_lossy.maxtimers
0x00000000 g   *ABS*      0x00000000 xscope_mode_lossy.maxchanends
0x00000001 g   *ABS*      0x00000000 xscope_mode_lossy.maxcores
0x00000000 g   *ABS*      0x00000000 xscope_mode_lossless.nstackwords
0x00000000 g   *ABS*      0x00000000 xscope_mode_lossless.maxtimers
0x00000000 g   *ABS*      0x00000000 xscope_mode_lossless.maxchanends
0x00000001 g   *ABS*      0x00000000 xscope_mode_lossless.maxcores
0x00000000 l F *ABS*      0x00000000 __checkFptrGroup.S
0x00000001 g   *ABS*      0x00000000 __checkFptrGroup.maxcores
0x00000000 g   *ABS*      0x00000000 __checkFptrGroup.maxtimers
0x00000000 g   *ABS*      0x00000000 __checkFptrGroup.maxchanends
0x00080584 l   .text      0x00000000 $s.4
0x00000000 g   *ABS*      0x00000000 __main_default_network
0x00000002 g   *ABS*      0x00000000 tile.globound
0x00000000 l F *ABS*      0x00000000 crtend.S
0x000805e4 l   .cp.const4 0x00000000 .cp.const4
0x000805e4 l   .cp.const4 0x00000000 ctor_list_ptr
0x00080600 l   .cp.const4 0x00000000 ctors_size
0x00080618 g   .ctors     0x00000000 _CTOR_END_
0x000800ce l   .init      0x00000000 .init
0x000800dc l   .init      0x00000000 do_ctors_loop
0x000800e4 l   .init      0x00000000 do_ctors_end
0x000800ce l   .init      0x00000000 $s.5
0x00000000 l F *ABS*      0x00000000 crtn.S
0x000800e4 l   .init      0x00000000 .init
0x00080112 l   .fini      0x00000000 .fini
0x000800e4 l   .init      0x00000000 $s.4
0x00080112 l   .fini      0x00000000 $s.5
0x00000000 l F *ABS*      0x00000000 _sod.xcNxJpvA
0x00080638 l   .dp.data   0x00000000 .dp.data
0x00080618 g   .bss       0x00000000 _ebss

Disassembly of section .crt (size: 204)

<.crt>:
<_start>:
             0x00080000: 4b 68:       ldc (ru6)       r1, 0xb
             0x00080002: 40 77:       entsp (u6)      0x0
             0x00080004: d1 fe ec 17: get (l2r)       r0, ps[r1]
             0x00080008: 04 f0 8b 68: ldc (lru6)      r2, 0x10b
             0x0008000c: c2 fe ec 1f: set (lr2r)      ps[r2], r0
             0x00080010: c3 86:       getr (rus)      r0, 0x3
             0x00080012: 4b d8:       ldap (u10)      r11, 0x4b <_InitChildThread>
             0x00080014: 02 73:       bu (u6)         0x2 <.label0>
.label1      0x00080016: 5d ff ec 07: init (l2r)      t[r1]:pc, r11
.label0      0x0008001a: d4 06:       getst (2r)      r1, res[r0]
             0x0008001c: 44 74:       bt (ru6)        r1, -0x4 <.label1>
             0x0008001e: f0 1f:       msync (1r)      res[r0]
             0x00080020: 46 d0:       bl (u10)        0x46 <_SetupThread>
             0x00080022: 00 f0 8b 6f: ldw (lru6)      sp, cp[0xb]
             0x00080026: f0 17:       mjoin (1r)      res[r0]
             0x00080028: e0 17:       freer (1r)      res[r0]
             0x0008002a: 08 f0 0b 68: ldc (lru6)      r0, 0x20b
             0x0008002e: 00 f0 50 58: ldw (lru6)      r1, dp[0x10]
             0x00080032: c4 fe ec 1f: set (lr2r)      ps[r0], r1
             0x00080036: 00 f0 12 60: ldaw (lru6)     r0, dp[0x12]
             0x0008003a: 40 68:       ldc (ru6)       r1, 0x0
             0x0008003c: 00 f0 8c 6c: ldw (lru6)      r2, cp[0xc]
             0x00080040: 00 f0 42 d1: bl (lu10)       0x142 <.label2>
             0x00080044: 00 f0 07 6c: ldw (lru6)      r0, cp[0x7]
             0x00080048: 40 68:       ldc (ru6)       r1, 0x0
             0x0008004a: 00 f0 8d 6c: ldw (lru6)      r2, cp[0xd]
             0x0008004e: 00 f0 3b d1: bl (lu10)       0x13b <.label2>
             0x00080052: 00 f0 08 6c: ldw (lru6)      r0, cp[0x8]
             0x00080056: 40 68:       ldc (ru6)       r1, 0x0
             0x00080058: 00 f0 8e 6c: ldw (lru6)      r2, cp[0xe]
             0x0008005c: 00 f0 34 d1: bl (lu10)       0x134 <.label2>
             0x00080060: 00 f0 36 d1: bl (lu10)       0x136 <.label3>
             0x00080064: 00 f0 32 d0: bl (lu10)       0x32 <.label4>
             0x00080068: 00 f0 c6 6a: ldc (lru6)      r11, 0x6
             0x0008006c: c8 ea:       setc (ru6)      res[r11], 0x8
             0x0008006e: cf ea:       setc (ru6)      res[r11], 0xf
             0x00080070: 00 68:       ldc (ru6)       r0, 0x0
             0x00080072: 01 54:       stw (ru6)       r0, sp[0x1]
             0x00080074: 00 f0 40 68: ldc (lru6)      r1, 0x0
             0x00080078: 07 73:       bu (u6)         0x7 <_startExit>
             0x0008007a: ff 17:       nop (0r)        
             0x0008007c: ff 17:       nop (0r)        
             0x0008007e: ff 17:       nop (0r)        

<_TrapHandler>:
             0x00080080: 00 f0 40 77: entsp (lu6)     0x0
             0x00080084: 00 f0 1e 73: bu (lu6)        0x1e <_DoException> <.crt>

<_startExit>:
             0x00080088: 48 78:       bf (ru6)        r1, 0x8 <.label5>
             0x0008008a: 01 64:       ldaw (ru6)      r0, sp[0x1]
             0x0008008c: 00 f0 fa d0: bl (lu10)       0xfa <.label6>
             0x00080090: b0 f8 ec 97: ashr (l2rus)    r11, r0, 0x20
             0x00080094: c2 7a:       bf (ru6)        r11, 0x2 <.label5>
             0x00080096: 01 90:       add (2rus)      r0, r0, 0x1
             0x00080098: f0 4f:       ecallt (1r)     r0
.label5      0x0008009a: 41 64:       ldaw (ru6)      r1, sp[0x1]
             0x0008009c: 00 f0 c5 d0: bl (lu10)       0xc5 <.label7>
             0x000800a0: 02 70:       bt (ru6)        r0, 0x2 <.label8>
             0x000800a2: 00 f0 f7 d0: bl (lu10)       0xf7 <.label9>
.label8      0x000800a6: 00 f0 01 d1: bl (lu10)       0x101 <.label10>

<_InitChildThread>:
             0x000800aa: 01 d0:       bl (u10)        0x1 <_SetupThread>
             0x000800ac: ee 07:       ssync (0r)      

<_SetupThread>:
             0x000800ae: 18 dc:       ldap (u10)      r11, -0x18 <_TrapHandler>
             0x000800b0: ff 07:       set (0r)        kep, r11
             0x000800b2: 00 f0 85 da: ldap (lu10)     r11, 0x285 <.label11>
             0x000800b6: fb 37:       set (1r)        cp, r11
             0x000800b8: 00 f0 46 6f: ldw (lru6)      dp, cp[0x6]
             0x000800bc: c0 6a:       ldc (ru6)       r11, 0x0
             0x000800be: fb 2f:       set (1r)        sp, r11
             0x000800c0: c0 77:       retsp (u6)      0x0

<__register_frame_info_bases>:
             0x000800c2: c0 77:       retsp (u6)      0x0

<_DoException>:
<.crt>:
             0x000800c4: 00 f0 40 77: entsp (lu6)     0x0
             0x000800c8: ed 07:       clre (0r)       
             0x000800ca: ec 07:       waiteu (0r)     

Disassembly of section .init (size: 26)

<_init>:
<.init>:
.label4      0x000800cc: 42 77:       entsp (u6)      0x2

<.init>:
             0x000800ce: 00 f0 7b d1: bl (lu10)       0x17b <.label12>
             0x000800d2: 00 f0 10 6d: ldw (lru6)      r4, cp[0x10]
             0x000800d6: 06 79:       bf (ru6)        r4, 0x6 <do_ctors_end> <.init>
             0x000800d8: 00 f0 49 6d: ldw (lru6)      r5, cp[0x9]

<do_ctors_loop>:
             0x000800dc: 01 99:       sub (2rus)      r4, r4, 0x1
             0x000800de: 04 4b:       ldw (3r)        r0, r5[r4]
             0x000800e0: e0 27:       bla (1r)        r0
             0x000800e2: 04 75:       bt (ru6)        r4, -0x4 <do_ctors_loop>

<do_ctors_end>:
<.init>:
             0x000800e4: c2 77:       retsp (u6)      0x2

Disassembly of section .fini (size: 46)

<.fini>:
<_fini>:
.label22     0x000800e6: 42 77:       entsp (u6)      0x2

<.fini>:
             0x000800e8: 84 77:       extsp (u6)      0x4
             0x000800ea: 01 55:       stw (ru6)       r4, sp[0x1]
             0x000800ec: 42 55:       stw (ru6)       r5, sp[0x2]
             0x000800ee: 83 55:       stw (ru6)       r6, sp[0x3]
             0x000800f0: 00 f0 8f 6d: ldw (lru6)      r6, cp[0xf]
             0x000800f4: 88 79:       bf (ru6)        r6, 0x8 <do_dtors_end>
             0x000800f6: 00 69:       ldc (ru6)       r4, 0x0
             0x000800f8: 00 f0 4a 6d: ldw (lru6)      r5, cp[0xa]

<do_dtors_loop>:
             0x000800fc: 04 4b:       ldw (3r)        r0, r5[r4]
             0x000800fe: e0 27:       bla (1r)        r0
             0x00080100: 01 91:       add (2rus)      r4, r4, 0x1
             0x00080102: b2 cb:       lsu (3r)        r11, r4, r6
             0x00080104: c5 76:       bt (ru6)        r11, -0x5 <do_dtors_loop>

<do_dtors_end>:
             0x00080106: 00 f0 ed d0: bl (lu10)       0xed <.label13>
             0x0008010a: 01 5d:       ldw (ru6)       r4, sp[0x1]
             0x0008010c: 42 5d:       ldw (ru6)       r5, sp[0x2]
             0x0008010e: 83 5d:       ldw (ru6)       r6, sp[0x3]
             0x00080110: 84 67:       ldaw (ru6)      sp, sp[0x4]

<.fini>:
             0x00080112: c2 77:       retsp (u6)      0x2

Disassembly of section .text (size: 1158)

<__main__main_tile_1>:
             0x00080114: 00 f0 42 77: entsp (lu6)     0x2
             0x00080118: 00 f0 4a 60: ldaw (lru6)     r1, dp[0xa]
             0x0008011c: 00 68:       ldc (ru6)       r0, 0x0
             0x0008011e: 00 f0 ff d0: bl (lu10)       0xff <__start_other_cores>
             0x00080122: c2 77:       retsp (u6)      0x2

<__main__main_tile_1_task_tile1_task1_2>:
             0x00080124: 00 f0 42 77: entsp (lu6)     0x2
             0x00080128: 00 f0 18 d0: bl (lu10)       0x18 <tile1_task1>
             0x0008012c: c2 77:       retsp (u6)      0x2
             0x0008012e: 00 00:       stw (2rus)      r0, r0[0x0]

<__main__main_tile_1_task_tile1_task2_3>:
             0x00080130: 00 f0 42 77: entsp (lu6)     0x2
             0x00080134: 00 f0 16 d0: bl (lu10)       0x16 <tile1_task2>
             0x00080138: c2 77:       retsp (u6)      0x2
             0x0008013a: 00 00:       stw (2rus)      r0, r0[0x0]

<__dtor_PIN>:
             0x0008013c: 00 f0 40 77: entsp (lu6)     0x0
             0x00080140: 00 f0 12 58: ldw (lru6)      r0, dp[0x12]
             0x00080144: 01 78:       bf (ru6)        r0, 0x1 <.label14>
             0x00080146: 00 e8:       setc (ru6)      res[r0], 0x0
.label14     0x00080148: c0 77:       retsp (u6)      0x0
             0x0008014a: 00 00:       stw (2rus)      r0, r0[0x0]

<__dtor_PLEDS>:
             0x0008014c: 00 f0 40 77: entsp (lu6)     0x0
             0x00080150: 00 f0 14 58: ldw (lru6)      r0, dp[0x14]
             0x00080154: 01 78:       bf (ru6)        r0, 0x1 <.label15>
             0x00080156: 00 e8:       setc (ru6)      res[r0], 0x0
.label15     0x00080158: c0 77:       retsp (u6)      0x0
             0x0008015a: 00 00:       stw (2rus)      r0, r0[0x0]

<tile1_task1>:
             0x0008015c: 00 f0 40 77: entsp (lu6)     0x0
             0x00080160: c0 77:       retsp (u6)      0x0
             0x00080162: 00 00:       stw (2rus)      r0, r0[0x0]

<tile1_task2>:
             0x00080164: 00 f0 40 77: entsp (lu6)     0x0
             0x00080168: c0 77:       retsp (u6)      0x0
             0x0008016a: 00 00:       stw (2rus)      r0, r0[0x0]

<_GLOBAL__sub_I_tests.cpp>:
             0x0008016c: 00 f0 46 77: entsp (lu6)     0x6
             0x00080170: 05 f9 ec f7: std (l2rus)     r5, r4, sp[0x1]
             0x00080174: 84 55:       stw (ru6)       r6, sp[0x4]
             0x00080176: 00 f0 52 6d: ldw (lru6)      r5, cp[0x12]
             0x0008017a: 00 f0 52 51: stw (lru6)      r5, dp[0x12]
             0x0008017e: 48 e9:       setc (ru6)      res[r5], 0x8
             0x00080180: 00 f0 24 dc: ldap (lu10)     r11, -0x24 <__dtor_PIN>
             0x00080184: 8c 91:       add (2rus)      r0, r11, 0x0
             0x00080186: 00 f0 f1 d0: bl (lu10)       0xf1 <atexit>
             0x0008018a: 00 f0 54 51: stw (lru6)      r5, dp[0x14]
             0x0008018e: 00 f0 14 61: ldaw (lru6)     r4, dp[0x14]
             0x00080192: 48 e9:       setc (ru6)      res[r5], 0x8
             0x00080194: 80 69:       ldc (ru6)       r6, 0x0
             0x00080196: 00 f0 95 51: stw (lru6)      r6, dp[0x15]
             0x0008019a: c9 af:       out (r2r)       res[r5], r6
             0x0008019c: 43 e9:       setc (ru6)      res[r5], 0x3
             0x0008019e: 00 f0 2b dc: ldap (lu10)     r11, -0x2b <__dtor_PLEDS>
             0x000801a2: 8c 91:       add (2rus)      r0, r11, 0x0
             0x000801a4: 00 f0 e2 d0: bl (lu10)       0xe2 <atexit>
             0x000801a8: 00 f0 16 51: stw (lru6)      r4, dp[0x16]
             0x000801ac: 00 f0 97 51: stw (lru6)      r6, dp[0x17]
             0x000801b0: 00 f0 18 51: stw (lru6)      r4, dp[0x18]
             0x000801b4: d1 a6:       mkmsk (rus)     r0, 0x1
             0x000801b6: 00 f0 19 50: stw (lru6)      r0, dp[0x19]
             0x000801ba: 00 f0 1a 51: stw (lru6)      r4, dp[0x1a]
             0x000801be: 02 68:       ldc (ru6)       r0, 0x2
             0x000801c0: 00 f0 1b 50: stw (lru6)      r0, dp[0x1b]
             0x000801c4: 00 f0 1c 51: stw (lru6)      r4, dp[0x1c]
             0x000801c8: d2 a6:       mkmsk (rus)     r0, 0x2
             0x000801ca: 00 f0 1d 50: stw (lru6)      r0, dp[0x1d]
             0x000801ce: 84 5d:       ldw (ru6)       r6, sp[0x4]
             0x000801d0: 05 f9 ec ef: ldd (l2rus)     r5, r4, sp[0x1]
             0x000801d4: c6 77:       retsp (u6)      0x6
             0x000801d6: 00 00:       stw (2rus)      r0, r0[0x0]

<XC_USE_TIMER_END>:
<XC_USE_CHANEND_END>:
<__dtor_XCPortUndefined>:
             0x000801d8: 00 f0 40 77: entsp (lu6)     0x0
             0x000801dc: 00 f0 1e 58: ldw (lru6)      r0, dp[0x1e]
             0x000801e0: 01 78:       bf (ru6)        r0, 0x1 <.label16>
             0x000801e2: 00 e8:       setc (ru6)      res[r0], 0x0
.label16     0x000801e4: c0 77:       retsp (u6)      0x0
             0x000801e6: 00 00:       stw (2rus)      r0, r0[0x0]

<_GLOBAL__sub_I_XC_core.cpp>:
             0x000801e8: 00 f0 44 77: entsp (lu6)     0x4
             0x000801ec: 05 f9 ec f7: std (l2rus)     r5, r4, sp[0x1]
             0x000801f0: 00 69:       ldc (ru6)       r4, 0x0
             0x000801f2: 00 f0 27 51: stw (lru6)      r4, dp[0x27]
             0x000801f6: 00 f0 1e 51: stw (lru6)      r4, dp[0x1e]
             0x000801fa: 00 f0 5e 61: ldaw (lru6)     r5, dp[0x1e]
             0x000801fe: 00 f0 15 dc: ldap (lu10)     r11, -0x15 <XC_USE_TIMER_END> <XC_USE_CHANEND_END> <__dtor_XCPortUndefined>
             0x00080202: 8c 91:       add (2rus)      r0, r11, 0x0
             0x00080204: 00 f0 b2 d0: bl (lu10)       0xb2 <atexit>
             0x00080208: 00 f0 60 51: stw (lru6)      r5, dp[0x20]
             0x0008020c: 00 f0 21 51: stw (lru6)      r4, dp[0x21]
             0x00080210: 00 f0 28 51: stw (lru6)      r4, dp[0x28]
             0x00080214: 00 f0 22 51: stw (lru6)      r4, dp[0x22]
             0x00080218: 00 f0 23 51: stw (lru6)      r4, dp[0x23]
             0x0008021c: 00 f0 24 51: stw (lru6)      r4, dp[0x24]
             0x00080220: 00 f0 25 51: stw (lru6)      r4, dp[0x25]
             0x00080224: 05 f9 ec ef: ldd (l2rus)     r5, r4, sp[0x1]
             0x00080228: c4 77:       retsp (u6)      0x4

<main>:
.label7      0x0008022a: 42 77:       entsp (u6)      0x2
.label17     0x0008022c: c2 86:       getr (rus)      r0, 0x2
             0x0008022e: 02 74:       bt (ru6)        r0, -0x2 <.label17>
             0x00080230: 78 f0 02 68: ldc (lru6)      r0, 0x1e02
             0x00080234: 00 f0 d1 6e: ldw (lru6)      r11, cp[0x11]
             0x00080238: 5c 17:       setd (r2r)      res[r0], r11
             0x0008023a: d1 4e:       outct (rus)     res[r0], 0x1
             0x0008023c: 5c bf:       testct (2r)     r11, res[r0]
             0x0008023e: c2 7a:       bf (ru6)        r11, 0x2 <.label18>
             0x00080240: d1 ce:       chkct (rus)     res[r0], 0x1
             0x00080242: d1 4e:       outct (rus)     res[r0], 0x1
.label18     0x00080244: 5c 8f:       int (2r)        r11, res[r0]
             0x00080246: d1 ce:       chkct (rus)     res[r0], 0x1
             0x00080248: 05 68:       ldc (ru6)       r0, 0x5
             0x0008024a: 00 f0 53 d0: bl (lu10)       0x53 <delay_ticks>
             0x0008024e: 00 f0 40 7f: ldaw (lu6)      r11, cp[0x0]
             0x00080252: 00 68:       ldc (ru6)       r0, 0x0
             0x00080254: 60 68:       ldc (ru6)       r1, 0x20
             0x00080256: 02 69:       ldc (ru6)       r4, 0x2
.label21     0x00080258: ac 09:       ldw (2rus)      r2, r11[0x0]
             0x0008025a: b8 ac:       shr (2rus)      r3, r2, 0x8
             0x0008025c: 38 47:       zext (rus)      r2, 0x8
             0x0008025e: 58 30:       eq (3r)         r5, r2, r0
             0x00080260: 47 79:       bf (ru6)        r5, 0x7 <.label19>
             0x00080262: a8 a4:       shl (2rus)      r2, r2, 0x8
             0x00080264: 68 42:       or (3r)         r2, r2, r4
             0x00080266: bc a4:       shl (2rus)      r3, r3, 0x8
             0x00080268: 7c 42:       or (3r)         r3, r3, r4
             0x0008026a: de 16:       setd (r2r)      res[r2], r3
             0x0008026c: 7c 94:       add (2rus)      r11, r11, 0x4
             0x0008026e: 03 73:       bu (u6)         0x3 <.label20>
.label19     0x00080270: a0 a4:       shl (2rus)      r2, r0, 0x8
             0x00080272: 68 42:       or (3r)         r2, r2, r4
             0x00080274: e2 17:       freer (1r)      res[r2]
.label20     0x00080276: 01 90:       add (2rus)      r0, r0, 0x1
             0x00080278: 21 30:       eq (3r)         r2, r0, r1
             0x0008027a: 92 7c:       bf (ru6)        r2, -0x12 <.label21>
             0x0008027c: 00 f0 b6 d4: bl (lu10)       -0xb6 <__main__main_tile_1>
             0x00080280: 00 68:       ldc (ru6)       r0, 0x0
             0x00080282: c2 77:       retsp (u6)      0x2

<_get_cmdline>:
.label6      0x00080284: 00 f0 40 77: entsp (lu6)     0x0
             0x00080288: 24 90:       add (2rus)      r2, r1, 0x0
             0x0008028a: 10 90:       add (2rus)      r1, r0, 0x0
             0x0008028c: 0d 68:       ldc (ru6)       r0, 0xd
             0x0008028e: 00 f0 77 d8: ldap (lu10)     r11, 0x77 <_DoSyscall>
             0x00080292: fb 27:       bau (1r)        r11

<__libc_done>:
.label9      0x00080294: 00 f0 42 77: entsp (lu6)     0x2
             0x00080298: 00 68:       ldc (ru6)       r0, 0x0
             0x0008029a: 10 90:       add (2rus)      r1, r0, 0x0
             0x0008029c: 00 f0 74 d0: bl (lu10)       0x74 <__call_exitprocs>
             0x000802a0: 00 f0 7c d0: bl (lu10)       0x7c <_cleanup>
             0x000802a4: 00 f0 e1 d4: bl (lu10)       -0xe1 <.label22>
             0x000802a8: 00 f0 7e d0: bl (lu10)       0x7e <_done>

<_exit_unlocked>:
.label10     0x000802ac: 00 f0 44 77: entsp (lu6)     0x4
             0x000802b0: 02 55:       stw (ru6)       r4, sp[0x2]
             0x000802b2: 40 90:       add (2rus)      r4, r0, 0x0
             0x000802b4: 40 68:       ldc (ru6)       r1, 0x0
             0x000802b6: 00 f0 67 d0: bl (lu10)       0x67 <__call_exitprocs>
             0x000802ba: 00 f0 6f d0: bl (lu10)       0x6f <_cleanup>
             0x000802be: 00 f0 ee d4: bl (lu10)       -0xee <.label22>
             0x000802c2: c0 90:       add (2rus)      r0, r4, 0x0
             0x000802c4: 00 f0 78 d0: bl (lu10)       0x78 <_exit>

<memset>:
.label2      0x000802c8: 00 f0 c1 6e: ldw (lru6)      r11, cp[0x1]
             0x000802cc: ff 17:       nop (0r)        
             0x000802ce: fb 27:       bau (1r)        r11

<__init_threadlocal_timer>:
.label3      0x000802d0: 00 f0 40 77: entsp (lu6)     0x0
             0x000802d4: c9 86:       getr (rus)      r2, 0x1
             0x000802d6: 00 f0 40 60: ldaw (lru6)     r1, dp[0x0]
             0x000802da: ee 17:       get (0r)        r11, id
             0x000802dc: a7 fc ec 07: stw (l3r)       r2, r1[r11]
             0x000802e0: c0 77:       retsp (u6)      0x0
             0x000802e2: 00 00:       stw (2rus)      r0, r0[0x0]

<__free_threadlocal_timer>:
.label13     0x000802e4: 00 f0 40 77: entsp (lu6)     0x0
             0x000802e8: 00 f0 80 60: ldaw (lru6)     r2, dp[0x0]
             0x000802ec: ee 17:       get (0r)        r11, id
             0x000802ee: ab 4c:       ldw (3r)        r2, r2[r11]
             0x000802f0: e2 17:       freer (1r)      res[r2]
             0x000802f2: c0 77:       retsp (u6)      0x0

<delay_ticks>:
             0x000802f4: 00 f0 40 77: entsp (lu6)     0x0
             0x000802f8: e1 8f:       gettime (1r)    r1
             0x000802fa: ee 17:       get (0r)        r11, id
             0x000802fc: 00 f0 80 60: ldaw (lru6)     r2, dp[0x0]
             0x00080300: ab 4c:       ldw (3r)        r2, r2[r11]
             0x00080302: 30 f8 ec 97: ashr (l2rus)    r3, r0, 0x20
             0x00080306: c6 78:       bf (ru6)        r3, 0x6 <.label23>
             0x00080308: 00 f0 d3 6c: ldw (lru6)      r3, cp[0x13]
             0x0008030c: 37 10:       add (3r)        r3, r1, r3
             0x0008030e: de 16:       setd (r2r)      res[r2], r3
             0x00080310: 89 e8:       setc (ru6)      res[r2], 0x9
             0x00080312: ce b6:       in (2r)         r3, res[r2]
.label23     0x00080314: 04 10:       add (3r)        r0, r1, r0
             0x00080316: d2 16:       setd (r2r)      res[r2], r0
             0x00080318: 89 e8:       setc (ru6)      res[r2], 0x9
             0x0008031a: c2 b6:       in (2r)         r0, res[r2]
             0x0008031c: c0 77:       retsp (u6)      0x0
             0x0008031e: 00 00:       stw (2rus)      r0, r0[0x0]

<__start_other_cores>:
             0x00080320: 00 f0 44 77: entsp (lu6)     0x4
             0x00080324: 01 55:       stw (ru6)       r4, sp[0x1]
             0x00080326: 42 55:       stw (ru6)       r5, sp[0x2]
             0x00080328: ed 07:       clre (0r)       
             0x0008032a: 07 87:       getr (rus)      r5, 0x3
             0x0008032c: 44 08:       ldw (2rus)      r4, r1[0x0]
             0x0008032e: 80 64:       ldaw (ru6)      r2, sp[0x0]
.label24     0x00080330: 00 f0 66 d8: ldap (lu10)     r11, 0x66 <__start_core>
             0x00080334: 9d 07:       getst (2r)      r3, res[r5]
             0x00080336: 5f ff ec 07: init (l2r)      t[r3]:pc, r11
             0x0008033a: 03 f8 ec b7: set (l3r)       t[r3]:r0, r0
             0x0008033e: d3 f8 ec b7: set (l3r)       t[r3]:r1, r4
             0x00080342: 45 08:       ldw (2rus)      r4, r1[0x1]
             0x00080344: 01 91:       add (2rus)      r4, r4, 0x1
             0x00080346: c1 6a:       ldc (ru6)       r11, 0x1
             0x00080348: f3 3d:       and (3r)        r11, r4, r11
             0x0008034a: 83 15:       add (3r)        r4, r4, r11
             0x0008034c: 02 a1:       shl (2rus)      r4, r4, 0x2
             0x0008034e: 68 1a:       sub (3r)        r2, r2, r4
             0x00080350: cb fe ec 07: init (l2r)      t[r3]:sp, r2
             0x00080354: 94 94:       add (2rus)      r1, r1, 0x8
             0x00080356: 44 08:       ldw (2rus)      r4, r1[0x0]
             0x00080358: 15 75:       bt (ru6)        r4, -0x15 <.label24>
             0x0008035a: f5 1f:       msync (1r)      res[r5]
             0x0008035c: b5 08:       ldw (2rus)      r11, r1[0x1]
             0x0008035e: eb 27:       bla (1r)        r11
             0x00080360: f5 17:       mjoin (1r)      res[r5]
             0x00080362: e5 17:       freer (1r)      res[r5]
             0x00080364: 01 5d:       ldw (ru6)       r4, sp[0x1]
             0x00080366: 42 5d:       ldw (ru6)       r5, sp[0x2]
             0x00080368: c4 77:       retsp (u6)      0x4
             0x0008036a: 00 00:       stw (2rus)      r0, r0[0x0]

<atexit>:
             0x0008036c: 00 f0 42 77: entsp (lu6)     0x2
             0x00080370: 10 90:       add (2rus)      r1, r0, 0x0
             0x00080372: 00 68:       ldc (ru6)       r0, 0x0
             0x00080374: 20 90:       add (2rus)      r2, r0, 0x0
             0x00080376: 30 90:       add (2rus)      r3, r0, 0x0
             0x00080378: 00 f0 4e d0: bl (lu10)       0x4e <__register_exitproc>
             0x0008037c: c2 77:       retsp (u6)      0x2
             0x0008037e: 00 00:       stw (2rus)      r0, r0[0x0]

<_DoSyscall>:
             0x00080380: 00 f0 40 77: entsp (lu6)     0x0
             0x00080384: d0 a6:       mkmsk (rus)     r0, 0x20
             0x00080386: c0 77:       retsp (u6)      0x0

<__call_exitprocs>:
             0x00080388: 00 f0 42 77: entsp (lu6)     0x2
             0x0008038c: 00 f0 94 d0: bl (lu10)       0x94 <__call_exitprocs_impl>
             0x00080390: c2 77:       retsp (u6)      0x2
             0x00080392: 00 00:       stw (2rus)      r0, r0[0x0]

<_cleanup_impl>:
             0x00080394: 00 f0 40 77: entsp (lu6)     0x0
             0x00080398: c0 77:       retsp (u6)      0x0
             0x0008039a: 00 00:       stw (2rus)      r0, r0[0x0]

<_cleanup>:
             0x0008039c: 00 f0 42 77: entsp (lu6)     0x2
             0x000803a0: 00 f0 08 d4: bl (lu10)       -0x8 <_cleanup_impl>
             0x000803a4: c2 77:       retsp (u6)      0x2
             0x000803a6: 00 00:       stw (2rus)      r0, r0[0x0]

<_done>:
             0x000803a8: 00 f0 40 77: entsp (lu6)     0x0
             0x000803ac: 07 68:       ldc (ru6)       r0, 0x7
             0x000803ae: 00 f0 19 d4: bl (lu10)       -0x19 <_DoSyscall>
             0x000803b2: ed 07:       clre (0r)       
             0x000803b4: ec 07:       waiteu (0r)     
             0x000803b6: 00 00:       stw (2rus)      r0, r0[0x0]

<_exit>:
             0x000803b8: 00 f0 40 77: entsp (lu6)     0x0
             0x000803bc: 10 90:       add (2rus)      r1, r0, 0x0
             0x000803be: 00 68:       ldc (ru6)       r0, 0x0
             0x000803c0: 00 f0 22 d4: bl (lu10)       -0x22 <_DoSyscall>
             0x000803c4: ed 07:       clre (0r)       
             0x000803c6: ec 07:       waiteu (0r)     

<__alloc_libc_hwlock>:
.label12     0x000803c8: 00 f0 40 77: entsp (lu6)     0x0
             0x000803cc: 81 87:       getr (rus)      r0, 0x5
             0x000803ce: 00 f0 29 50: stw (lru6)      r0, dp[0x29]
             0x000803d2: c0 77:       retsp (u6)      0x0

<__lock_fair_acquire>:
             0x000803d4: 00 f0 40 77: entsp (lu6)     0x0
             0x000803d8: 00 f0 69 58: ldw (lru6)      r1, dp[0x29]
             0x000803dc: c5 b6:       in (2r)         r1, res[r1]
             0x000803de: 10 08:       ldw (2rus)      r1, r0[0x0]
             0x000803e0: 25 90:       add (2rus)      r2, r1, 0x1
             0x000803e2: 20 00:       stw (2rus)      r2, r0[0x0]
             0x000803e4: 00 f0 a9 58: ldw (lru6)      r2, dp[0x29]
             0x000803e8: ca ae:       out (r2r)       res[r2], r2
.label25     0x000803ea: 21 08:       ldw (2rus)      r2, r0[0x1]
             0x000803ec: 29 30:       eq (3r)         r2, r2, r1
             0x000803ee: 83 7c:       bf (ru6)        r2, -0x3 <.label25>
             0x000803f0: c0 77:       retsp (u6)      0x0
             0x000803f2: 00 00:       stw (2rus)      r0, r0[0x0]

<__lock_fair_release>:
             0x000803f4: 00 f0 40 77: entsp (lu6)     0x0
             0x000803f8: 11 08:       ldw (2rus)      r1, r0[0x1]
             0x000803fa: 15 90:       add (2rus)      r1, r1, 0x1
             0x000803fc: 11 00:       stw (2rus)      r1, r0[0x1]
             0x000803fe: c0 77:       retsp (u6)      0x0

<__start_core>:
             0x00080400: 00 f0 40 77: entsp (lu6)     0x0
             0x00080404: 40 90:       add (2rus)      r4, r0, 0x0
             0x00080406: 34 90:       add (2rus)      r3, r1, 0x0
             0x00080408: 00 f0 9e d4: bl (lu10)       -0x9e <__init_threadlocal_timer>
             0x0008040c: c0 90:       add (2rus)      r0, r4, 0x0
             0x0008040e: e3 27:       bla (1r)        r3
             0x00080410: 00 f0 98 d4: bl (lu10)       -0x98 <__free_threadlocal_timer>
             0x00080414: ee 07:       ssync (0r)      
             0x00080416: 00 00:       stw (2rus)      r0, r0[0x0]

<__register_exitproc>:
             0x00080418: 00 f0 48 77: entsp (lu6)     0x8
             0x0008041c: 05 f9 ec f7: std (l2rus)     r5, r4, sp[0x1]
             0x00080420: 2e f9 ec f7: std (l2rus)     r7, r6, sp[0x2]
             0x00080424: 06 56:       stw (ru6)       r8, sp[0x6]
             0x00080426: 5c 90:       add (2rus)      r5, r3, 0x0
             0x00080428: 78 90:       add (2rus)      r7, r2, 0x0
             0x0008042a: 44 90:       add (2rus)      r4, r1, 0x0
             0x0008042c: 60 90:       add (2rus)      r6, r0, 0x0
             0x0008042e: 00 f0 43 7f: ldaw (lu6)      r11, cp[0x3]
             0x00080432: 9c 91:       add (2rus)      r1, r11, 0x0
             0x00080434: 00 f0 46 7f: ldaw (lu6)      r11, cp[0x6]
             0x00080438: c0 90:       add (2rus)      r0, r4, 0x0
             0x0008043a: ac 91:       add (2rus)      r2, r11, 0x0
             0x0008043c: 00 f0 a2 d0: bl (lu10)       0xa2 <__checkFptrGroup>
             0x00080440: e0 4f:       ecallf (1r)     r0
             0x00080442: 02 f0 0e 60: ldaw (lru6)     r0, dp[0x8e]
             0x00080446: 00 f0 3b d4: bl (lu10)       -0x3b <__lock_fair_acquire>
             0x0008044a: 00 f0 0e 58: ldw (lru6)      r0, dp[0xe]
             0x0008044e: 11 08:       ldw (2rus)      r1, r0[0x1]
             0x00080450: 99 a7:       mkmsk (rus)     r2, 0x5
             0x00080452: 29 c0:       lss (3r)        r2, r2, r1
             0x00080454: 82 78:       bf (ru6)        r2, 0x2 <.label26>
             0x00080456: d0 a6:       mkmsk (rus)     r0, 0x20
             0x00080458: 29 73:       bu (u6)         0x29 <.label27>
.label26     0x0008045a: 9e 79:       bf (ru6)        r6, 0x1e <.label28>
             0x0008045c: 02 f0 88 68: ldc (lru6)      r2, 0x88
             0x00080460: 32 10:       add (3r)        r3, r0, r2
             0x00080462: 7d f8 ec 07: stw (l3r)       r7, r3[r1]
             0x00080466: 11 08:       ldw (2rus)      r1, r0[0x1]
             0x00080468: d9 a6:       mkmsk (rus)     r2, 0x1
             0x0008046a: b9 20:       shl (3r)        r11, r2, r1
             0x0008046c: 06 f0 c8 69: ldc (lru6)      r7, 0x188
             0x00080470: b3 12:       add (3r)        r7, r0, r7
             0x00080472: 4c 09:       ldw (2rus)      r8, r7[0x0]
             0x00080474: b3 46:       or (3r)         r11, r8, r11
             0x00080476: 7c 01:       stw (2rus)      r11, r7[0x0]
             0x00080478: 1d f8 ec 1f: ldaw (l3r)      r1, r3[r1]
             0x0008047c: 02 f0 c0 68: ldc (lru6)      r3, 0x80
             0x00080480: 17 10:       add (3r)        r1, r1, r3
             0x00080482: 54 00:       stw (2rus)      r5, r1[0x0]
             0x00080484: 11 08:       ldw (2rus)      r1, r0[0x1]
             0x00080486: fa b0:       eq (2rus)       r3, r6, 0x2
             0x00080488: c7 78:       bf (ru6)        r3, 0x7 <.label28>
             0x0008048a: 29 20:       shl (3r)        r2, r2, r1
             0x0008048c: 06 f0 cc 68: ldc (lru6)      r3, 0x18c
             0x00080490: 33 10:       add (3r)        r3, r0, r3
             0x00080492: bc 08:       ldw (2rus)      r11, r3[0x0]
             0x00080494: ae 41:       or (3r)         r2, r11, r2
             0x00080496: 2c 00:       stw (2rus)      r2, r3[0x0]
.label28     0x00080498: 25 90:       add (2rus)      r2, r1, 0x1
             0x0008049a: 21 00:       stw (2rus)      r2, r0[0x1]
             0x0008049c: 01 f8 ec 1f: ldaw (l3r)      r0, r0[r1]
             0x000804a0: 42 00:       stw (2rus)      r4, r0[0x2]
             0x000804a2: 02 f0 0e 60: ldaw (lru6)     r0, dp[0x8e]
             0x000804a6: 00 f0 5b d4: bl (lu10)       -0x5b <__lock_fair_release>
             0x000804aa: 00 68:       ldc (ru6)       r0, 0x0
.label27     0x000804ac: 06 5e:       ldw (ru6)       r8, sp[0x6]
             0x000804ae: 2e f9 ec ef: ldd (l2rus)     r7, r6, sp[0x2]
             0x000804b2: 05 f9 ec ef: ldd (l2rus)     r5, r4, sp[0x1]
             0x000804b6: c8 77:       retsp (u6)      0x8

<__call_exitprocs_impl>:
             0x000804b8: 00 f0 4e 77: entsp (lu6)     0xe
             0x000804bc: 07 f9 ec f7: std (l2rus)     r5, r4, sp[0x3]
             0x000804c0: 6c fb ec f7: std (l2rus)     r7, r6, sp[0x4]
             0x000804c4: 45 fc ec f7: std (l2rus)     r9, r8, sp[0x5]
             0x000804c8: 8c 56:       stw (ru6)       r10, sp[0xc]
             0x000804ca: 44 90:       add (2rus)      r4, r1, 0x0
             0x000804cc: 01 54:       stw (ru6)       r0, sp[0x1]
             0x000804ce: 00 f0 0e 58: ldw (lru6)      r0, dp[0xe]
             0x000804d2: 01 f0 0f 78: bf (lru6)       r0, 0x4f <.label29>
             0x000804d6: 80 6a:       ldc (ru6)       r10, 0x0
.label39     0x000804d8: 80 90:       add (2rus)      r8, r0, 0x0
             0x000804da: 11 0a:       ldw (2rus)      r9, r8[0x1]
             0x000804dc: d1 a6:       mkmsk (rus)     r0, 0x1
             0x000804de: 84 c1:       lss (3r)        r0, r9, r0
             0x000804e0: 01 f0 08 70: bt (lru6)       r0, 0x48 <.label29>
             0x000804e4: 06 f0 08 68: ldc (lru6)      r0, 0x188
             0x000804e8: 80 11:       add (3r)        r0, r8, r0
             0x000804ea: 04 54:       stw (ru6)       r0, sp[0x4]
             0x000804ec: 06 f0 0c 68: ldc (lru6)      r0, 0x18c
             0x000804f0: 80 11:       add (3r)        r0, r8, r0
             0x000804f2: 03 54:       stw (ru6)       r0, sp[0x3]
             0x000804f4: 01 fe ec 1f: ldaw (l3r)      r0, r8[r9]
             0x000804f8: 02 f0 44 68: ldc (lru6)      r1, 0x84
             0x000804fc: 11 10:       add (3r)        r1, r0, r1
             0x000804fe: 42 54:       stw (ru6)       r1, sp[0x2]
             0x00080500: 04 f0 44 68: ldc (lru6)      r1, 0x104
             0x00080504: 11 10:       add (3r)        r1, r0, r1
             0x00080506: 45 54:       stw (ru6)       r1, sp[0x5]
             0x00080508: a0 92:       add (2rus)      r6, r0, 0x4
             0x0008050a: f8 91:       add (2rus)      r7, r10, 0x0
.label38     0x0008050c: 04 79:       bf (ru6)        r4, 0x4 <.label30>
             0x0008050e: 05 5c:       ldw (ru6)       r0, sp[0x5]
             0x00080510: 43 4a:       ldw (3r)        r0, r0[r7]
             0x00080512: 40 32:       eq (3r)         r0, r0, r4
             0x00080514: 28 78:       bf (ru6)        r0, 0x28 <.label31>
.label30     0x00080516: f7 13:       add (3r)        r3, r9, r7
             0x00080518: 1d 98:       sub (2rus)      r1, r3, 0x1
             0x0008051a: d1 a6:       mkmsk (rus)     r0, 0x1
             0x0008051c: 01 20:       shl (3r)        r0, r0, r1
             0x0008051e: 2b 4b:       ldw (3r)        r2, r6[r7]
             0x00080520: 31 0a:       ldw (2rus)      r11, r8[0x1]
             0x00080522: bf 34:       eq (3r)         r3, r3, r11
             0x00080524: c2 78:       bf (ru6)        r3, 0x2 <.label32>
             0x00080526: 91 01:       stw (2rus)      r1, r8[0x1]
             0x00080528: 02 73:       bu (u6)         0x2 <.label33>
.label32     0x0008052a: ab fb ec 07: stw (l3r)       r10, r6[r7]
.label33     0x0008052e: 9b 78:       bf (ru6)        r2, 0x1b <.label31>
             0x00080530: d8 91:       add (2rus)      r5, r10, 0x0
             0x00080532: 21 0a:       ldw (2rus)      r10, r8[0x1]
             0x00080534: 44 5c:       ldw (ru6)       r1, sp[0x4]
             0x00080536: 14 08:       ldw (2rus)      r1, r1[0x0]
             0x00080538: 14 38:       and (3r)        r1, r1, r0
             0x0008053a: 49 78:       bf (ru6)        r1, 0x9 <.label34>
             0x0008053c: 43 5c:       ldw (ru6)       r1, sp[0x3]
             0x0008053e: 14 08:       ldw (2rus)      r1, r1[0x0]
             0x00080540: 04 38:       and (3r)        r0, r1, r0
             0x00080542: 42 5c:       ldw (ru6)       r1, sp[0x2]
             0x00080544: 57 4a:       ldw (3r)        r1, r1[r7]
             0x00080546: 05 78:       bf (ru6)        r0, 0x5 <.label35>
             0x00080548: 04 90:       add (2rus)      r0, r1, 0x0
             0x0008054a: e2 27:       bla (1r)        r2
             0x0008054c: 04 73:       bu (u6)         0x4 <.label36>
.label34     0x0008054e: e2 27:       bla (1r)        r2
             0x00080550: 02 73:       bu (u6)         0x2 <.label36>
.label35     0x00080552: 01 5c:       ldw (ru6)       r0, sp[0x1]
             0x00080554: e2 27:       bla (1r)        r2
.label36     0x00080556: 91 09:       ldw (2rus)      r1, r8[0x1]
             0x00080558: 00 f0 0e 58: ldw (lru6)      r0, dp[0xe]
             0x0008055c: 99 31:       eq (3r)         r1, r10, r1
             0x0008055e: 64 91:       add (2rus)      r10, r5, 0x0
             0x00080560: 47 78:       bf (ru6)        r1, 0x7 <.label37>
             0x00080562: 90 34:       eq (3r)         r1, r0, r8
             0x00080564: 45 78:       bf (ru6)        r1, 0x5 <.label37>
.label31     0x00080566: 3d 99:       sub (2rus)      r7, r7, 0x1
             0x00080568: c7 13:       add (3r)        r0, r9, r7
             0x0008056a: 88 c1:       lss (3r)        r0, r10, r0
             0x0008056c: 31 74:       bt (ru6)        r0, -0x31 <.label38>
             0x0008056e: 02 73:       bu (u6)         0x2 <.label29>
.label37     0x00080570: 01 f0 0e 74: bt (lru6)       r0, -0x4e <.label39>
.label29     0x00080574: 8c 5e:       ldw (ru6)       r10, sp[0xc]
             0x00080576: 45 fc ec ef: ldd (l2rus)     r9, r8, sp[0x5]
             0x0008057a: 6c fb ec ef: ldd (l2rus)     r7, r6, sp[0x4]
             0x0008057e: 07 f9 ec ef: ldd (l2rus)     r5, r4, sp[0x3]
             0x00080582: ce 77:       retsp (u6)      0xe

<__checkFptrGroup>:
             0x00080584: 00 f0 40 77: entsp (lu6)     0x0
             0x00080588: 30 90:       add (2rus)      r3, r0, 0x0
.label41     0x0008058a: 06 c8:       lsu (3r)        r0, r1, r2
             0x0008058c: 05 78:       bf (ru6)        r0, 0x5 <.label40>
             0x0008058e: 04 08:       ldw (2rus)      r0, r1[0x0]
             0x00080590: 03 30:       eq (3r)         r0, r0, r3
             0x00080592: 02 70:       bt (ru6)        r0, 0x2 <.label40>
             0x00080594: 54 92:       add (2rus)      r1, r1, 0x4
             0x00080596: 07 77:       bu (u6)         -0x7 <.label41>
.label40     0x00080598: c0 77:       retsp (u6)      0x0

Disassembly of section .eh_frame (size: 36)

             0x0008059c: 0c 00 00 00: 
             0x000805a0: 00 00 00 00: 
             0x000805a4: 01 00 01 01: 
             0x000805a8: 0f 0c 0e 00: 
             0x000805ac: 10 00 00 00: 
             0x000805b0: 14 00 00 00: 
             0x000805b4: 04 04 08 00: 
             0x000805b8: 12 00 00 00: 
             0x000805bc: 07 0f 00 00: 

Disassembly of section .cp.rodata (size: 12)

<_cp>:
<.cp.rodata>:
<chanends_to_setup>:
.label11     0x000805c0: ff 00 00 00: 

<.cp.rodata>:
             0x000805c4: 30 19 f0 ff: 

<.cp.rodata>:
             0x000805c8: f0 19 f0 ff: 

Disassembly of section .cp.rodata.4 (size: 12)

<_fptrgroup.stdlib_atexit.group.begin>:
             0x000805cc: 3c 01 08 00: 
             0x000805d0: 4c 01 08 00: 
             0x000805d4: d8 01 08 00: 

Disassembly of section .cp.const4 (size: 48)

<initial_dp>:
             0x000805d8: 18 06 08 00: 

<dp_bss_large_start>:
             0x000805dc: 58 08 08 00: 

<extmem_bss_start>:
             0x000805e0: 00 00 00 10: 

<.cp.const4>:
<ctor_list_ptr>:
             0x000805e4: 10 06 08 00: 

<.cp.const4>:
<dtor_list_ptr>:
             0x000805e8: 18 06 08 00: 

<.cp.const4>:
<initial_sp>:
             0x000805ec: 78 ff 0f 00: 

<dp_bss_size>:
             0x000805f0: f8 01 00 00: 

<dp_bss_large_size>:
             0x000805f4: 00 00 00 00: 

<extmem_bss_size>:
             0x000805f8: 00 00 00 00: 

<dtors_size>:
             0x000805fc: 00 00 00 00: 

<ctors_size>:
             0x00080600: 02 00 00 00: 

<.cp.const4>:
             0x00080604: 02 1f 02 80: 

Disassembly of section .cp.rodata.cst4 (size: 8)

<.cp.rodata.cst4>:
<.cp.rodata.cst4>:
<.cp.rodata.cst4>:
<.cp.rodata.cst4>:
<.cp.rodata.cst4>:
<.cp.rodata.cst4>:
<.cp.rodata.cst4>:
             0x00080608: 00 02 04 00: 
             0x0008060c: ff ff ff 7f: 

Disassembly of section .ctors (size: 8)

<_CTOR_LIST_>:
<.ctors>:
             0x00080610: 6c 01 08 00: 

<.ctors>:
             0x00080614: e8 01 08 00: 

Disassembly of section .dp.data (size: 40)

<_dp>:
<__timers>:
<.dp.data>:
<.dp.data>:
             0x00080618: 01 00 00 00: 
             0x0008061c: 00 00 00 00: 
             0x00080620: 00 00 00 00: 
             0x00080624: 00 00 00 00: 
             0x00080628: 00 00 00 00: 
             0x0008062c: 00 00 00 00: 
             0x00080630: 00 00 00 00: 
             0x00080634: 00 00 00 00: 

<__sodFlag>:
<.dp.data>:
<.dp.data>:
<.dp.data>:
             0x00080638: 00 00 00 00: 

<__sodEnd>:
             0x0008063c: 02 01 00 80: 

Disassembly of section .dp.data.4 (size: 20)

<.dp.data.4>:
<par.desc.2>:
             0x00080640: 24 01 08 00: 
             0x00080644: 02 00 00 00: 
             0x00080648: 00 00 00 00: 
             0x0008064c: 30 01 08 00: 

<.dp.data.4>:
<.dp.data.4>:
<.dp.data.4>:
<.dp.data.4>:
<_atexit_fns>:
             0x00080650: c0 06 08 00: 

Disassembly of section .dp.rodata (size: 4)

<tile>:
             0x00080654: 00 00 01 00: 

Disassembly of section .dp.data.extmem.setps (size: 4)

<.dp.data.extmem.setps>:
<__extmem_setps_val>:
             0x00080658: 00 18 00 00: 


